Archive member included to satisfy reference by file (symbol)

/home/val/Desktop/fyp/gcc-arm-none-eabi-7-2017-q4-major/bin/../lib/gcc/arm-none-eabi/7.2.1/../../../../arm-none-eabi/lib/thumb/v7e-m/fpv4-sp/hard/libm.a(lib_a-sf_trunc.o)
                              ../../ggm/pow.o (truncf)
/home/val/Desktop/fyp/gcc-arm-none-eabi-7-2017-q4-major/bin/../lib/gcc/arm-none-eabi/7.2.1/thumb/v7e-m/fpv4-sp/hard/libgcc.a(_arm_addsubdf3.o)
                              ../../ggm/sin.o (__aeabi_f2d)
/home/val/Desktop/fyp/gcc-arm-none-eabi-7-2017-q4-major/bin/../lib/gcc/arm-none-eabi/7.2.1/thumb/v7e-m/fpv4-sp/hard/libgcc.a(_arm_muldivdf3.o)
                              ../../ggm/sin.o (__aeabi_dmul)
/home/val/Desktop/fyp/gcc-arm-none-eabi-7-2017-q4-major/bin/../lib/gcc/arm-none-eabi/7.2.1/thumb/v7e-m/fpv4-sp/hard/libgcc.a(_arm_fixunsdfsi.o)
                              ../../ggm/sin.o (__aeabi_d2uiz)
/home/val/Desktop/fyp/gcc-arm-none-eabi-7-2017-q4-major/bin/../lib/gcc/arm-none-eabi/7.2.1/../../../../arm-none-eabi/lib/thumb/v7e-m/fpv4-sp/hard/libc.a(lib_a-exit.o)
                              /home/val/Desktop/fyp/gcc-arm-none-eabi-7-2017-q4-major/bin/../lib/gcc/arm-none-eabi/7.2.1/../../../../arm-none-eabi/lib/thumb/v7e-m/fpv4-sp/hard/crt0.o (exit)
/home/val/Desktop/fyp/gcc-arm-none-eabi-7-2017-q4-major/bin/../lib/gcc/arm-none-eabi/7.2.1/../../../../arm-none-eabi/lib/thumb/v7e-m/fpv4-sp/hard/libc.a(lib_a-impure.o)
                              /home/val/Desktop/fyp/gcc-arm-none-eabi-7-2017-q4-major/bin/../lib/gcc/arm-none-eabi/7.2.1/../../../../arm-none-eabi/lib/thumb/v7e-m/fpv4-sp/hard/libc.a(lib_a-exit.o) (_global_impure_ptr)
/home/val/Desktop/fyp/gcc-arm-none-eabi-7-2017-q4-major/bin/../lib/gcc/arm-none-eabi/7.2.1/../../../../arm-none-eabi/lib/thumb/v7e-m/fpv4-sp/hard/libc.a(lib_a-init.o)
                              /home/val/Desktop/fyp/gcc-arm-none-eabi-7-2017-q4-major/bin/../lib/gcc/arm-none-eabi/7.2.1/../../../../arm-none-eabi/lib/thumb/v7e-m/fpv4-sp/hard/crt0.o (__libc_init_array)
/home/val/Desktop/fyp/gcc-arm-none-eabi-7-2017-q4-major/bin/../lib/gcc/arm-none-eabi/7.2.1/../../../../arm-none-eabi/lib/thumb/v7e-m/fpv4-sp/hard/libc.a(lib_a-memcpy.o)
                              ../../common/rtt/SEGGER_RTT.o (memcpy)
/home/val/Desktop/fyp/gcc-arm-none-eabi-7-2017-q4-major/bin/../lib/gcc/arm-none-eabi/7.2.1/../../../../arm-none-eabi/lib/thumb/v7e-m/fpv4-sp/hard/libc.a(lib_a-memset.o)
                              /home/val/Desktop/fyp/gcc-arm-none-eabi-7-2017-q4-major/bin/../lib/gcc/arm-none-eabi/7.2.1/../../../../arm-none-eabi/lib/thumb/v7e-m/fpv4-sp/hard/crt0.o (memset)
/home/val/Desktop/fyp/gcc-arm-none-eabi-7-2017-q4-major/bin/../lib/gcc/arm-none-eabi/7.2.1/../../../../arm-none-eabi/lib/thumb/v7e-m/fpv4-sp/hard/libc.a(lib_a-strlen.o)
                              ../../common/rtt/SEGGER_RTT.o (strlen)
/home/val/Desktop/fyp/gcc-arm-none-eabi-7-2017-q4-major/bin/../lib/gcc/arm-none-eabi/7.2.1/../../../../arm-none-eabi/lib/thumb/v7e-m/fpv4-sp/hard/libc.a(lib_a-__call_atexit.o)
                              /home/val/Desktop/fyp/gcc-arm-none-eabi-7-2017-q4-major/bin/../lib/gcc/arm-none-eabi/7.2.1/../../../../arm-none-eabi/lib/thumb/v7e-m/fpv4-sp/hard/libc.a(lib_a-exit.o) (__call_exitprocs)
/home/val/Desktop/fyp/gcc-arm-none-eabi-7-2017-q4-major/bin/../lib/gcc/arm-none-eabi/7.2.1/../../../../arm-none-eabi/lib/thumb/v7e-m/fpv4-sp/hard/libc.a(lib_a-atexit.o)
                              /home/val/Desktop/fyp/gcc-arm-none-eabi-7-2017-q4-major/bin/../lib/gcc/arm-none-eabi/7.2.1/../../../../arm-none-eabi/lib/thumb/v7e-m/fpv4-sp/hard/libc.a(lib_a-__call_atexit.o) (atexit)
/home/val/Desktop/fyp/gcc-arm-none-eabi-7-2017-q4-major/bin/../lib/gcc/arm-none-eabi/7.2.1/../../../../arm-none-eabi/lib/thumb/v7e-m/fpv4-sp/hard/libc.a(lib_a-fini.o)
                              /home/val/Desktop/fyp/gcc-arm-none-eabi-7-2017-q4-major/bin/../lib/gcc/arm-none-eabi/7.2.1/../../../../arm-none-eabi/lib/thumb/v7e-m/fpv4-sp/hard/libc.a(lib_a-__call_atexit.o) (__libc_fini_array)
/home/val/Desktop/fyp/gcc-arm-none-eabi-7-2017-q4-major/bin/../lib/gcc/arm-none-eabi/7.2.1/../../../../arm-none-eabi/lib/thumb/v7e-m/fpv4-sp/hard/libc.a(lib_a-lock.o)
                              /home/val/Desktop/fyp/gcc-arm-none-eabi-7-2017-q4-major/bin/../lib/gcc/arm-none-eabi/7.2.1/../../../../arm-none-eabi/lib/thumb/v7e-m/fpv4-sp/hard/libc.a(lib_a-__call_atexit.o) (__retarget_lock_acquire_recursive)
/home/val/Desktop/fyp/gcc-arm-none-eabi-7-2017-q4-major/bin/../lib/gcc/arm-none-eabi/7.2.1/../../../../arm-none-eabi/lib/thumb/v7e-m/fpv4-sp/hard/libc.a(lib_a-__atexit.o)
                              /home/val/Desktop/fyp/gcc-arm-none-eabi-7-2017-q4-major/bin/../lib/gcc/arm-none-eabi/7.2.1/../../../../arm-none-eabi/lib/thumb/v7e-m/fpv4-sp/hard/libc.a(lib_a-atexit.o) (__register_exitproc)

Allocating common symbols
Common symbol       size              file

__lock___atexit_recursive_mutex
                    0x1               /home/val/Desktop/fyp/gcc-arm-none-eabi-7-2017-q4-major/bin/../lib/gcc/arm-none-eabi/7.2.1/../../../../arm-none-eabi/lib/thumb/v7e-m/fpv4-sp/hard/libc.a(lib_a-lock.o)
__lock___arc4random_mutex
                    0x1               /home/val/Desktop/fyp/gcc-arm-none-eabi-7-2017-q4-major/bin/../lib/gcc/arm-none-eabi/7.2.1/../../../../arm-none-eabi/lib/thumb/v7e-m/fpv4-sp/hard/libc.a(lib_a-lock.o)
current_patch_no    0x4               ../../target/mb997/main.o
uwTick              0x4               ../../soc/st/stm32f4/hal/src/stm32f4xx_hal.o
__lock___env_recursive_mutex
                    0x1               /home/val/Desktop/fyp/gcc-arm-none-eabi-7-2017-q4-major/bin/../lib/gcc/arm-none-eabi/7.2.1/../../../../arm-none-eabi/lib/thumb/v7e-m/fpv4-sp/hard/libc.a(lib_a-lock.o)
__lock___sinit_recursive_mutex
                    0x1               /home/val/Desktop/fyp/gcc-arm-none-eabi-7-2017-q4-major/bin/../lib/gcc/arm-none-eabi/7.2.1/../../../../arm-none-eabi/lib/thumb/v7e-m/fpv4-sp/hard/libc.a(lib_a-lock.o)
__lock___malloc_recursive_mutex
                    0x1               /home/val/Desktop/fyp/gcc-arm-none-eabi-7-2017-q4-major/bin/../lib/gcc/arm-none-eabi/7.2.1/../../../../arm-none-eabi/lib/thumb/v7e-m/fpv4-sp/hard/libc.a(lib_a-lock.o)
rand_state          0x4               ../../common/rand.o
ggm_audio           0x4ac             ../../target/mb997/audio.o
midi_serial         0x5c              ../../target/mb997/main.o
ggm_display         0x200             ../../target/mb997/display.o
__lock___at_quick_exit_mutex
                    0x1               /home/val/Desktop/fyp/gcc-arm-none-eabi-7-2017-q4-major/bin/../lib/gcc/arm-none-eabi/7.2.1/../../../../arm-none-eabi/lib/thumb/v7e-m/fpv4-sp/hard/libc.a(lib_a-lock.o)
_SEGGER_RTT         0xa8              ../../common/rtt/SEGGER_RTT.o
__lock___dd_hash_mutex
                    0x1               /home/val/Desktop/fyp/gcc-arm-none-eabi-7-2017-q4-major/bin/../lib/gcc/arm-none-eabi/7.2.1/../../../../arm-none-eabi/lib/thumb/v7e-m/fpv4-sp/hard/libc.a(lib_a-lock.o)
__lock___tz_mutex   0x1               /home/val/Desktop/fyp/gcc-arm-none-eabi-7-2017-q4-major/bin/../lib/gcc/arm-none-eabi/7.2.1/../../../../arm-none-eabi/lib/thumb/v7e-m/fpv4-sp/hard/libc.a(lib_a-lock.o)
tbuf                0x20              ../../ggm/patch4.o
__lock___sfp_recursive_mutex
                    0x1               /home/val/Desktop/fyp/gcc-arm-none-eabi-7-2017-q4-major/bin/../lib/gcc/arm-none-eabi/7.2.1/../../../../arm-none-eabi/lib/thumb/v7e-m/fpv4-sp/hard/libc.a(lib_a-lock.o)

Discarded input sections

 .text          0x0000000000000000        0x0 /home/val/Desktop/fyp/gcc-arm-none-eabi-7-2017-q4-major/bin/../lib/gcc/arm-none-eabi/7.2.1/thumb/v7e-m/fpv4-sp/hard/crti.o
 .data          0x0000000000000000        0x0 /home/val/Desktop/fyp/gcc-arm-none-eabi-7-2017-q4-major/bin/../lib/gcc/arm-none-eabi/7.2.1/thumb/v7e-m/fpv4-sp/hard/crti.o
 .bss           0x0000000000000000        0x0 /home/val/Desktop/fyp/gcc-arm-none-eabi-7-2017-q4-major/bin/../lib/gcc/arm-none-eabi/7.2.1/thumb/v7e-m/fpv4-sp/hard/crti.o
 .data          0x0000000000000000        0x4 /home/val/Desktop/fyp/gcc-arm-none-eabi-7-2017-q4-major/bin/../lib/gcc/arm-none-eabi/7.2.1/thumb/v7e-m/fpv4-sp/hard/crtbegin.o
 .text          0x0000000000000000       0x74 /home/val/Desktop/fyp/gcc-arm-none-eabi-7-2017-q4-major/bin/../lib/gcc/arm-none-eabi/7.2.1/../../../../arm-none-eabi/lib/thumb/v7e-m/fpv4-sp/hard/crt0.o
 .data          0x0000000000000000        0x0 /home/val/Desktop/fyp/gcc-arm-none-eabi-7-2017-q4-major/bin/../lib/gcc/arm-none-eabi/7.2.1/../../../../arm-none-eabi/lib/thumb/v7e-m/fpv4-sp/hard/crt0.o
 .bss           0x0000000000000000        0x0 /home/val/Desktop/fyp/gcc-arm-none-eabi-7-2017-q4-major/bin/../lib/gcc/arm-none-eabi/7.2.1/../../../../arm-none-eabi/lib/thumb/v7e-m/fpv4-sp/hard/crt0.o
 .ARM.extab     0x0000000000000000        0x0 /home/val/Desktop/fyp/gcc-arm-none-eabi-7-2017-q4-major/bin/../lib/gcc/arm-none-eabi/7.2.1/../../../../arm-none-eabi/lib/thumb/v7e-m/fpv4-sp/hard/crt0.o
 .ARM.exidx     0x0000000000000000        0x8 /home/val/Desktop/fyp/gcc-arm-none-eabi-7-2017-q4-major/bin/../lib/gcc/arm-none-eabi/7.2.1/../../../../arm-none-eabi/lib/thumb/v7e-m/fpv4-sp/hard/crt0.o
 .ARM.attributes
                0x0000000000000000       0x20 /home/val/Desktop/fyp/gcc-arm-none-eabi-7-2017-q4-major/bin/../lib/gcc/arm-none-eabi/7.2.1/../../../../arm-none-eabi/lib/thumb/v7e-m/fpv4-sp/hard/crt0.o
 .data          0x0000000000000000        0x0 ../../soc/st/stm32f4/hal/src/stm32f4xx_hal.o
 .bss           0x0000000000000000        0x0 ../../soc/st/stm32f4/hal/src/stm32f4xx_hal.o
 .data          0x0000000000000000        0x0 ../../soc/st/stm32f4/hal/src/stm32f4xx_hal_rcc.o
 .bss           0x0000000000000000        0x0 ../../soc/st/stm32f4/hal/src/stm32f4xx_hal_rcc.o
 .data          0x0000000000000000        0x0 ../../soc/st/stm32f4/hal/src/stm32f4xx_hal_rcc_ex.o
 .bss           0x0000000000000000        0x0 ../../soc/st/stm32f4/hal/src/stm32f4xx_hal_rcc_ex.o
 .data          0x0000000000000000        0x0 ../../soc/st/stm32f4/hal/src/stm32f4xx_hal_cortex.o
 .bss           0x0000000000000000        0x0 ../../soc/st/stm32f4/hal/src/stm32f4xx_hal_cortex.o
 .data          0x0000000000000000        0x0 ../../soc/st/stm32f4/hal/src/stm32f4xx_hal_gpio.o
 .bss           0x0000000000000000        0x0 ../../soc/st/stm32f4/hal/src/stm32f4xx_hal_gpio.o
 .bss           0x0000000000000000        0x0 ../../soc/st/stm32f4/system_stm32f4xx.o
 .data          0x0000000000000000        0x0 ../../soc/st/stm32f4/lib/gpio.o
 .bss           0x0000000000000000        0x0 ../../soc/st/stm32f4/lib/gpio.o
 .data          0x0000000000000000        0x0 ../../soc/st/stm32f4/lib/delay.o
 .bss           0x0000000000000000        0x0 ../../soc/st/stm32f4/lib/delay.o
 .data          0x0000000000000000        0x0 ../../soc/st/stm32f4/lib/i2c.o
 .bss           0x0000000000000000        0x0 ../../soc/st/stm32f4/lib/i2c.o
 .data          0x0000000000000000        0x0 ../../soc/st/stm32f4/lib/i2s.o
 .bss           0x0000000000000000        0x0 ../../soc/st/stm32f4/lib/i2s.o
 .data          0x0000000000000000        0x0 ../../soc/st/stm32f4/lib/dma.o
 .bss           0x0000000000000000        0x0 ../../soc/st/stm32f4/lib/dma.o
 .data          0x0000000000000000        0x0 ../../soc/st/stm32f4/lib/adc.o
 .bss           0x0000000000000000        0x0 ../../soc/st/stm32f4/lib/adc.o
 .data          0x0000000000000000        0x0 ../../soc/st/stm32f4/lib/usart.o
 .bss           0x0000000000000000        0x0 ../../soc/st/stm32f4/lib/usart.o
 .data          0x0000000000000000        0x0 ../../soc/st/stm32f4/lib/rng.o
 .bss           0x0000000000000000        0x0 ../../soc/st/stm32f4/lib/rng.o
 .data          0x0000000000000000        0x0 ../../soc/st/stm32f4/lib/spi.o
 .bss           0x0000000000000000        0x0 ../../soc/st/stm32f4/lib/spi.o
 .bss           0x0000000000000000        0x0 ../../target/mb997/audio.o
 .bss           0x0000000000000000        0x0 ../../target/mb997/display.o
 .data          0x0000000000000000        0x0 ../../common/logging.o
 .bss           0x0000000000000000        0x0 ../../common/logging.o
 .data          0x0000000000000000        0x0 ../../common/debounce.o
 .text          0x0000000000000000      0x354 ../../common/syscalls.o
 .data          0x0000000000000000        0x4 ../../common/syscalls.o
 .bss           0x0000000000000000        0x8 ../../common/syscalls.o
 .rodata        0x0000000000000000       0xa1 ../../common/syscalls.o
 .rodata.str1.4
                0x0000000000000000       0x71 ../../common/syscalls.o
 .comment       0x0000000000000000       0x7f ../../common/syscalls.o
 .ARM.attributes
                0x0000000000000000       0x39 ../../common/syscalls.o
 .data          0x0000000000000000        0x0 ../../common/rand.o
 .bss           0x0000000000000000        0x0 ../../common/rand.o
 .data          0x0000000000000000        0x0 ../../common/rtt/SEGGER_RTT.o
 .data          0x0000000000000000        0x0 ../../common/rtt/SEGGER_RTT_printf.o
 .bss           0x0000000000000000        0x0 ../../common/rtt/SEGGER_RTT_printf.o
 .data          0x0000000000000000        0x0 ../../drivers/cs43l22.o
 .bss           0x0000000000000000        0x0 ../../drivers/cs43l22.o
 .data          0x0000000000000000        0x0 ../../drivers/ili9341.o
 .bss           0x0000000000000000        0x0 ../../drivers/ili9341.o
 .data          0x0000000000000000        0x0 ../../ggm/sin.o
 .bss           0x0000000000000000        0x0 ../../ggm/sin.o
 .data          0x0000000000000000        0x0 ../../ggm/midi.o
 .bss           0x0000000000000000        0x0 ../../ggm/midi.o
 .bss           0x0000000000000000        0x0 ../../ggm/seq.o
 .data          0x0000000000000000        0x0 ../../ggm/ggm.o
 .bss           0x0000000000000000        0x0 ../../ggm/ggm.o
 .data          0x0000000000000000        0x0 ../../ggm/event.o
 .data          0x0000000000000000        0x0 ../../ggm/adsr.o
 .bss           0x0000000000000000        0x0 ../../ggm/adsr.o
 .data          0x0000000000000000        0x0 ../../ggm/pan.o
 .bss           0x0000000000000000        0x0 ../../ggm/pan.o
 .data          0x0000000000000000        0x0 ../../ggm/ks.o
 .bss           0x0000000000000000        0x0 ../../ggm/ks.o
 .data          0x0000000000000000        0x0 ../../ggm/lpf.o
 .bss           0x0000000000000000        0x0 ../../ggm/lpf.o
 .data          0x0000000000000000        0x0 ../../ggm/noise.o
 .bss           0x0000000000000000        0x0 ../../ggm/noise.o
 .data          0x0000000000000000        0x0 ../../ggm/block.o
 .bss           0x0000000000000000        0x0 ../../ggm/block.o
 .data          0x0000000000000000        0x0 ../../ggm/pow.o
 .bss           0x0000000000000000        0x0 ../../ggm/pow.o
 .text          0x0000000000000000       0x68 ../../ggm/bmark.o
 .data          0x0000000000000000        0x0 ../../ggm/bmark.o
 .bss           0x0000000000000000        0x0 ../../ggm/bmark.o
 .comment       0x0000000000000000       0x7f ../../ggm/bmark.o
 .ARM.attributes
                0x0000000000000000       0x39 ../../ggm/bmark.o
 .text          0x0000000000000000      0x204 ../../ggm/patch0.o
 .data          0x0000000000000000        0x0 ../../ggm/patch0.o
 .bss           0x0000000000000000        0x0 ../../ggm/patch0.o
 .rodata        0x0000000000000000       0x24 ../../ggm/patch0.o
 .rodata.str1.4
                0x0000000000000000       0x86 ../../ggm/patch0.o
 .comment       0x0000000000000000       0x7f ../../ggm/patch0.o
 .ARM.attributes
                0x0000000000000000       0x39 ../../ggm/patch0.o
 .data          0x0000000000000000        0x0 ../../ggm/patch1.o
 .bss           0x0000000000000000        0x0 ../../ggm/patch1.o
 .data          0x0000000000000000        0x0 ../../ggm/patch2.o
 .bss           0x0000000000000000        0x0 ../../ggm/patch2.o
 .data          0x0000000000000000        0x0 ../../ggm/patch3.o
 .bss           0x0000000000000000        0x0 ../../ggm/patch3.o
 .data          0x0000000000000000        0x0 ../../ggm/patch4.o
 .bss           0x0000000000000000        0x0 ../../ggm/patch4.o
 .data          0x0000000000000000        0x0 ../../ggm/patch5.o
 .bss           0x0000000000000000        0x0 ../../ggm/patch5.o
 .data          0x0000000000000000        0x0 ../../ggm/patch6.o
 .bss           0x0000000000000000        0x0 ../../ggm/patch6.o
 .text          0x0000000000000000      0x458 ../../ggm/patch7.o
 .data          0x0000000000000000        0x0 ../../ggm/patch7.o
 .bss           0x0000000000000000        0x0 ../../ggm/patch7.o
 .rodata        0x0000000000000000       0x24 ../../ggm/patch7.o
 .rodata.str1.4
                0x0000000000000000       0xe3 ../../ggm/patch7.o
 .comment       0x0000000000000000       0x7f ../../ggm/patch7.o
 .ARM.attributes
                0x0000000000000000       0x39 ../../ggm/patch7.o
 .text          0x0000000000000000      0x36c ../../ggm/waveguide.o
 .data          0x0000000000000000        0x0 ../../ggm/waveguide.o
 .bss           0x0000000000000000        0x0 ../../ggm/waveguide.o
 .comment       0x0000000000000000       0x7f ../../ggm/waveguide.o
 .ARM.attributes
                0x0000000000000000       0x39 ../../ggm/waveguide.o
 .data          0x0000000000000000        0x0 ../../ggm/patch8.o
 .bss           0x0000000000000000        0x0 ../../ggm/patch8.o
 .data          0x0000000000000000        0x0 ../../ggm/waveguide2d.o
 .bss           0x0000000000000000        0x0 ../../ggm/waveguide2d.o
 .data          0x0000000000000000        0x0 ../../ggm/patch9.o
 .bss           0x0000000000000000        0x0 ../../ggm/patch9.o
 .data          0x0000000000000000        0x0 ../../ggm/woodwind.o
 .bss           0x0000000000000000        0x0 ../../ggm/woodwind.o
 .data          0x0000000000000000        0x0 ../../ui/fonts.o
 .bss           0x0000000000000000        0x0 ../../ui/fonts.o
 .data          0x0000000000000000        0x0 ../../ui/term.o
 .bss           0x0000000000000000        0x0 ../../ui/term.o
 .text          0x0000000000000000      0x158 ../../ui/graphics.o
 .data          0x0000000000000000        0x0 ../../ui/graphics.o
 .bss           0x0000000000000000        0x0 ../../ui/graphics.o
 .comment       0x0000000000000000       0x7f ../../ui/graphics.o
 .ARM.attributes
                0x0000000000000000       0x39 ../../ui/graphics.o
 .text          0x0000000000000000        0x0 ../../ui/profont22.o
 .data          0x0000000000000000        0x0 ../../ui/profont22.o
 .bss           0x0000000000000000        0x0 ../../ui/profont22.o
 .text          0x0000000000000000       0x14 ../../target/mb997/start.o
 .data          0x0000000000000000        0x0 ../../target/mb997/start.o
 .bss           0x0000000000000000        0x0 ../../target/mb997/start.o
 .data          0x0000000000000000        0x0 ../../ggm/p4wave.o
 .bss           0x0000000000000000        0x0 ../../ggm/p4wave.o
 .text          0x0000000000000000        0x0 /home/val/Desktop/fyp/gcc-arm-none-eabi-7-2017-q4-major/bin/../lib/gcc/arm-none-eabi/7.2.1/../../../../arm-none-eabi/lib/thumb/v7e-m/fpv4-sp/hard/libm.a(lib_a-sf_trunc.o)
 .data          0x0000000000000000        0x0 /home/val/Desktop/fyp/gcc-arm-none-eabi-7-2017-q4-major/bin/../lib/gcc/arm-none-eabi/7.2.1/../../../../arm-none-eabi/lib/thumb/v7e-m/fpv4-sp/hard/libm.a(lib_a-sf_trunc.o)
 .bss           0x0000000000000000        0x0 /home/val/Desktop/fyp/gcc-arm-none-eabi-7-2017-q4-major/bin/../lib/gcc/arm-none-eabi/7.2.1/../../../../arm-none-eabi/lib/thumb/v7e-m/fpv4-sp/hard/libm.a(lib_a-sf_trunc.o)
 .data          0x0000000000000000        0x0 /home/val/Desktop/fyp/gcc-arm-none-eabi-7-2017-q4-major/bin/../lib/gcc/arm-none-eabi/7.2.1/thumb/v7e-m/fpv4-sp/hard/libgcc.a(_arm_addsubdf3.o)
 .bss           0x0000000000000000        0x0 /home/val/Desktop/fyp/gcc-arm-none-eabi-7-2017-q4-major/bin/../lib/gcc/arm-none-eabi/7.2.1/thumb/v7e-m/fpv4-sp/hard/libgcc.a(_arm_addsubdf3.o)
 .data          0x0000000000000000        0x0 /home/val/Desktop/fyp/gcc-arm-none-eabi-7-2017-q4-major/bin/../lib/gcc/arm-none-eabi/7.2.1/thumb/v7e-m/fpv4-sp/hard/libgcc.a(_arm_muldivdf3.o)
 .bss           0x0000000000000000        0x0 /home/val/Desktop/fyp/gcc-arm-none-eabi-7-2017-q4-major/bin/../lib/gcc/arm-none-eabi/7.2.1/thumb/v7e-m/fpv4-sp/hard/libgcc.a(_arm_muldivdf3.o)
 .data          0x0000000000000000        0x0 /home/val/Desktop/fyp/gcc-arm-none-eabi-7-2017-q4-major/bin/../lib/gcc/arm-none-eabi/7.2.1/thumb/v7e-m/fpv4-sp/hard/libgcc.a(_arm_fixunsdfsi.o)
 .bss           0x0000000000000000        0x0 /home/val/Desktop/fyp/gcc-arm-none-eabi-7-2017-q4-major/bin/../lib/gcc/arm-none-eabi/7.2.1/thumb/v7e-m/fpv4-sp/hard/libgcc.a(_arm_fixunsdfsi.o)
 .text          0x0000000000000000        0x0 /home/val/Desktop/fyp/gcc-arm-none-eabi-7-2017-q4-major/bin/../lib/gcc/arm-none-eabi/7.2.1/../../../../arm-none-eabi/lib/thumb/v7e-m/fpv4-sp/hard/libc.a(lib_a-exit.o)
 .data          0x0000000000000000        0x0 /home/val/Desktop/fyp/gcc-arm-none-eabi-7-2017-q4-major/bin/../lib/gcc/arm-none-eabi/7.2.1/../../../../arm-none-eabi/lib/thumb/v7e-m/fpv4-sp/hard/libc.a(lib_a-exit.o)
 .bss           0x0000000000000000        0x0 /home/val/Desktop/fyp/gcc-arm-none-eabi-7-2017-q4-major/bin/../lib/gcc/arm-none-eabi/7.2.1/../../../../arm-none-eabi/lib/thumb/v7e-m/fpv4-sp/hard/libc.a(lib_a-exit.o)
 .text.exit     0x0000000000000000       0x20 /home/val/Desktop/fyp/gcc-arm-none-eabi-7-2017-q4-major/bin/../lib/gcc/arm-none-eabi/7.2.1/../../../../arm-none-eabi/lib/thumb/v7e-m/fpv4-sp/hard/libc.a(lib_a-exit.o)
 .debug_frame   0x0000000000000000       0x28 /home/val/Desktop/fyp/gcc-arm-none-eabi-7-2017-q4-major/bin/../lib/gcc/arm-none-eabi/7.2.1/../../../../arm-none-eabi/lib/thumb/v7e-m/fpv4-sp/hard/libc.a(lib_a-exit.o)
 .ARM.attributes
                0x0000000000000000       0x34 /home/val/Desktop/fyp/gcc-arm-none-eabi-7-2017-q4-major/bin/../lib/gcc/arm-none-eabi/7.2.1/../../../../arm-none-eabi/lib/thumb/v7e-m/fpv4-sp/hard/libc.a(lib_a-exit.o)
 .text          0x0000000000000000        0x0 /home/val/Desktop/fyp/gcc-arm-none-eabi-7-2017-q4-major/bin/../lib/gcc/arm-none-eabi/7.2.1/../../../../arm-none-eabi/lib/thumb/v7e-m/fpv4-sp/hard/libc.a(lib_a-impure.o)
 .data          0x0000000000000000        0x0 /home/val/Desktop/fyp/gcc-arm-none-eabi-7-2017-q4-major/bin/../lib/gcc/arm-none-eabi/7.2.1/../../../../arm-none-eabi/lib/thumb/v7e-m/fpv4-sp/hard/libc.a(lib_a-impure.o)
 .bss           0x0000000000000000        0x0 /home/val/Desktop/fyp/gcc-arm-none-eabi-7-2017-q4-major/bin/../lib/gcc/arm-none-eabi/7.2.1/../../../../arm-none-eabi/lib/thumb/v7e-m/fpv4-sp/hard/libc.a(lib_a-impure.o)
 .data._impure_ptr
                0x0000000000000000        0x4 /home/val/Desktop/fyp/gcc-arm-none-eabi-7-2017-q4-major/bin/../lib/gcc/arm-none-eabi/7.2.1/../../../../arm-none-eabi/lib/thumb/v7e-m/fpv4-sp/hard/libc.a(lib_a-impure.o)
 .text          0x0000000000000000        0x0 /home/val/Desktop/fyp/gcc-arm-none-eabi-7-2017-q4-major/bin/../lib/gcc/arm-none-eabi/7.2.1/../../../../arm-none-eabi/lib/thumb/v7e-m/fpv4-sp/hard/libc.a(lib_a-init.o)
 .data          0x0000000000000000        0x0 /home/val/Desktop/fyp/gcc-arm-none-eabi-7-2017-q4-major/bin/../lib/gcc/arm-none-eabi/7.2.1/../../../../arm-none-eabi/lib/thumb/v7e-m/fpv4-sp/hard/libc.a(lib_a-init.o)
 .bss           0x0000000000000000        0x0 /home/val/Desktop/fyp/gcc-arm-none-eabi-7-2017-q4-major/bin/../lib/gcc/arm-none-eabi/7.2.1/../../../../arm-none-eabi/lib/thumb/v7e-m/fpv4-sp/hard/libc.a(lib_a-init.o)
 .data          0x0000000000000000        0x0 /home/val/Desktop/fyp/gcc-arm-none-eabi-7-2017-q4-major/bin/../lib/gcc/arm-none-eabi/7.2.1/../../../../arm-none-eabi/lib/thumb/v7e-m/fpv4-sp/hard/libc.a(lib_a-memcpy.o)
 .bss           0x0000000000000000        0x0 /home/val/Desktop/fyp/gcc-arm-none-eabi-7-2017-q4-major/bin/../lib/gcc/arm-none-eabi/7.2.1/../../../../arm-none-eabi/lib/thumb/v7e-m/fpv4-sp/hard/libc.a(lib_a-memcpy.o)
 .text          0x0000000000000000        0x0 /home/val/Desktop/fyp/gcc-arm-none-eabi-7-2017-q4-major/bin/../lib/gcc/arm-none-eabi/7.2.1/../../../../arm-none-eabi/lib/thumb/v7e-m/fpv4-sp/hard/libc.a(lib_a-memset.o)
 .data          0x0000000000000000        0x0 /home/val/Desktop/fyp/gcc-arm-none-eabi-7-2017-q4-major/bin/../lib/gcc/arm-none-eabi/7.2.1/../../../../arm-none-eabi/lib/thumb/v7e-m/fpv4-sp/hard/libc.a(lib_a-memset.o)
 .bss           0x0000000000000000        0x0 /home/val/Desktop/fyp/gcc-arm-none-eabi-7-2017-q4-major/bin/../lib/gcc/arm-none-eabi/7.2.1/../../../../arm-none-eabi/lib/thumb/v7e-m/fpv4-sp/hard/libc.a(lib_a-memset.o)
 .data          0x0000000000000000        0x0 /home/val/Desktop/fyp/gcc-arm-none-eabi-7-2017-q4-major/bin/../lib/gcc/arm-none-eabi/7.2.1/../../../../arm-none-eabi/lib/thumb/v7e-m/fpv4-sp/hard/libc.a(lib_a-strlen.o)
 .bss           0x0000000000000000        0x0 /home/val/Desktop/fyp/gcc-arm-none-eabi-7-2017-q4-major/bin/../lib/gcc/arm-none-eabi/7.2.1/../../../../arm-none-eabi/lib/thumb/v7e-m/fpv4-sp/hard/libc.a(lib_a-strlen.o)
 .text          0x0000000000000000        0x0 /home/val/Desktop/fyp/gcc-arm-none-eabi-7-2017-q4-major/bin/../lib/gcc/arm-none-eabi/7.2.1/../../../../arm-none-eabi/lib/thumb/v7e-m/fpv4-sp/hard/libc.a(lib_a-__call_atexit.o)
 .data          0x0000000000000000        0x0 /home/val/Desktop/fyp/gcc-arm-none-eabi-7-2017-q4-major/bin/../lib/gcc/arm-none-eabi/7.2.1/../../../../arm-none-eabi/lib/thumb/v7e-m/fpv4-sp/hard/libc.a(lib_a-__call_atexit.o)
 .bss           0x0000000000000000        0x0 /home/val/Desktop/fyp/gcc-arm-none-eabi-7-2017-q4-major/bin/../lib/gcc/arm-none-eabi/7.2.1/../../../../arm-none-eabi/lib/thumb/v7e-m/fpv4-sp/hard/libc.a(lib_a-__call_atexit.o)
 .text.__call_exitprocs
                0x0000000000000000       0xe8 /home/val/Desktop/fyp/gcc-arm-none-eabi-7-2017-q4-major/bin/../lib/gcc/arm-none-eabi/7.2.1/../../../../arm-none-eabi/lib/thumb/v7e-m/fpv4-sp/hard/libc.a(lib_a-__call_atexit.o)
 .text          0x0000000000000000        0x0 /home/val/Desktop/fyp/gcc-arm-none-eabi-7-2017-q4-major/bin/../lib/gcc/arm-none-eabi/7.2.1/../../../../arm-none-eabi/lib/thumb/v7e-m/fpv4-sp/hard/libc.a(lib_a-atexit.o)
 .data          0x0000000000000000        0x0 /home/val/Desktop/fyp/gcc-arm-none-eabi-7-2017-q4-major/bin/../lib/gcc/arm-none-eabi/7.2.1/../../../../arm-none-eabi/lib/thumb/v7e-m/fpv4-sp/hard/libc.a(lib_a-atexit.o)
 .bss           0x0000000000000000        0x0 /home/val/Desktop/fyp/gcc-arm-none-eabi-7-2017-q4-major/bin/../lib/gcc/arm-none-eabi/7.2.1/../../../../arm-none-eabi/lib/thumb/v7e-m/fpv4-sp/hard/libc.a(lib_a-atexit.o)
 .text          0x0000000000000000        0x0 /home/val/Desktop/fyp/gcc-arm-none-eabi-7-2017-q4-major/bin/../lib/gcc/arm-none-eabi/7.2.1/../../../../arm-none-eabi/lib/thumb/v7e-m/fpv4-sp/hard/libc.a(lib_a-fini.o)
 .data          0x0000000000000000        0x0 /home/val/Desktop/fyp/gcc-arm-none-eabi-7-2017-q4-major/bin/../lib/gcc/arm-none-eabi/7.2.1/../../../../arm-none-eabi/lib/thumb/v7e-m/fpv4-sp/hard/libc.a(lib_a-fini.o)
 .bss           0x0000000000000000        0x0 /home/val/Desktop/fyp/gcc-arm-none-eabi-7-2017-q4-major/bin/../lib/gcc/arm-none-eabi/7.2.1/../../../../arm-none-eabi/lib/thumb/v7e-m/fpv4-sp/hard/libc.a(lib_a-fini.o)
 .text          0x0000000000000000        0x0 /home/val/Desktop/fyp/gcc-arm-none-eabi-7-2017-q4-major/bin/../lib/gcc/arm-none-eabi/7.2.1/../../../../arm-none-eabi/lib/thumb/v7e-m/fpv4-sp/hard/libc.a(lib_a-lock.o)
 .data          0x0000000000000000        0x0 /home/val/Desktop/fyp/gcc-arm-none-eabi-7-2017-q4-major/bin/../lib/gcc/arm-none-eabi/7.2.1/../../../../arm-none-eabi/lib/thumb/v7e-m/fpv4-sp/hard/libc.a(lib_a-lock.o)
 .bss           0x0000000000000000        0x0 /home/val/Desktop/fyp/gcc-arm-none-eabi-7-2017-q4-major/bin/../lib/gcc/arm-none-eabi/7.2.1/../../../../arm-none-eabi/lib/thumb/v7e-m/fpv4-sp/hard/libc.a(lib_a-lock.o)
 .text.__retarget_lock_init
                0x0000000000000000        0x4 /home/val/Desktop/fyp/gcc-arm-none-eabi-7-2017-q4-major/bin/../lib/gcc/arm-none-eabi/7.2.1/../../../../arm-none-eabi/lib/thumb/v7e-m/fpv4-sp/hard/libc.a(lib_a-lock.o)
 .text.__retarget_lock_init_recursive
                0x0000000000000000        0x4 /home/val/Desktop/fyp/gcc-arm-none-eabi-7-2017-q4-major/bin/../lib/gcc/arm-none-eabi/7.2.1/../../../../arm-none-eabi/lib/thumb/v7e-m/fpv4-sp/hard/libc.a(lib_a-lock.o)
 .text.__retarget_lock_close
                0x0000000000000000        0x4 /home/val/Desktop/fyp/gcc-arm-none-eabi-7-2017-q4-major/bin/../lib/gcc/arm-none-eabi/7.2.1/../../../../arm-none-eabi/lib/thumb/v7e-m/fpv4-sp/hard/libc.a(lib_a-lock.o)
 .text.__retarget_lock_close_recursive
                0x0000000000000000        0x4 /home/val/Desktop/fyp/gcc-arm-none-eabi-7-2017-q4-major/bin/../lib/gcc/arm-none-eabi/7.2.1/../../../../arm-none-eabi/lib/thumb/v7e-m/fpv4-sp/hard/libc.a(lib_a-lock.o)
 .text.__retarget_lock_acquire
                0x0000000000000000        0x4 /home/val/Desktop/fyp/gcc-arm-none-eabi-7-2017-q4-major/bin/../lib/gcc/arm-none-eabi/7.2.1/../../../../arm-none-eabi/lib/thumb/v7e-m/fpv4-sp/hard/libc.a(lib_a-lock.o)
 .text.__retarget_lock_try_acquire
                0x0000000000000000        0x4 /home/val/Desktop/fyp/gcc-arm-none-eabi-7-2017-q4-major/bin/../lib/gcc/arm-none-eabi/7.2.1/../../../../arm-none-eabi/lib/thumb/v7e-m/fpv4-sp/hard/libc.a(lib_a-lock.o)
 .text.__retarget_lock_try_acquire_recursive
                0x0000000000000000        0x4 /home/val/Desktop/fyp/gcc-arm-none-eabi-7-2017-q4-major/bin/../lib/gcc/arm-none-eabi/7.2.1/../../../../arm-none-eabi/lib/thumb/v7e-m/fpv4-sp/hard/libc.a(lib_a-lock.o)
 .text.__retarget_lock_release
                0x0000000000000000        0x4 /home/val/Desktop/fyp/gcc-arm-none-eabi-7-2017-q4-major/bin/../lib/gcc/arm-none-eabi/7.2.1/../../../../arm-none-eabi/lib/thumb/v7e-m/fpv4-sp/hard/libc.a(lib_a-lock.o)
 .text          0x0000000000000000        0x0 /home/val/Desktop/fyp/gcc-arm-none-eabi-7-2017-q4-major/bin/../lib/gcc/arm-none-eabi/7.2.1/../../../../arm-none-eabi/lib/thumb/v7e-m/fpv4-sp/hard/libc.a(lib_a-__atexit.o)
 .data          0x0000000000000000        0x0 /home/val/Desktop/fyp/gcc-arm-none-eabi-7-2017-q4-major/bin/../lib/gcc/arm-none-eabi/7.2.1/../../../../arm-none-eabi/lib/thumb/v7e-m/fpv4-sp/hard/libc.a(lib_a-__atexit.o)
 .bss           0x0000000000000000        0x0 /home/val/Desktop/fyp/gcc-arm-none-eabi-7-2017-q4-major/bin/../lib/gcc/arm-none-eabi/7.2.1/../../../../arm-none-eabi/lib/thumb/v7e-m/fpv4-sp/hard/libc.a(lib_a-__atexit.o)
 .text          0x0000000000000000        0x0 /home/val/Desktop/fyp/gcc-arm-none-eabi-7-2017-q4-major/bin/../lib/gcc/arm-none-eabi/7.2.1/thumb/v7e-m/fpv4-sp/hard/crtend.o
 .data          0x0000000000000000        0x0 /home/val/Desktop/fyp/gcc-arm-none-eabi-7-2017-q4-major/bin/../lib/gcc/arm-none-eabi/7.2.1/thumb/v7e-m/fpv4-sp/hard/crtend.o
 .bss           0x0000000000000000        0x0 /home/val/Desktop/fyp/gcc-arm-none-eabi-7-2017-q4-major/bin/../lib/gcc/arm-none-eabi/7.2.1/thumb/v7e-m/fpv4-sp/hard/crtend.o
 .eh_frame      0x0000000000000000        0x4 /home/val/Desktop/fyp/gcc-arm-none-eabi-7-2017-q4-major/bin/../lib/gcc/arm-none-eabi/7.2.1/thumb/v7e-m/fpv4-sp/hard/crtend.o
 .ARM.attributes
                0x0000000000000000       0x34 /home/val/Desktop/fyp/gcc-arm-none-eabi-7-2017-q4-major/bin/../lib/gcc/arm-none-eabi/7.2.1/thumb/v7e-m/fpv4-sp/hard/crtend.o
 .text          0x0000000000000000        0x0 /home/val/Desktop/fyp/gcc-arm-none-eabi-7-2017-q4-major/bin/../lib/gcc/arm-none-eabi/7.2.1/thumb/v7e-m/fpv4-sp/hard/crtn.o
 .data          0x0000000000000000        0x0 /home/val/Desktop/fyp/gcc-arm-none-eabi-7-2017-q4-major/bin/../lib/gcc/arm-none-eabi/7.2.1/thumb/v7e-m/fpv4-sp/hard/crtn.o
 .bss           0x0000000000000000        0x0 /home/val/Desktop/fyp/gcc-arm-none-eabi-7-2017-q4-major/bin/../lib/gcc/arm-none-eabi/7.2.1/thumb/v7e-m/fpv4-sp/hard/crtn.o

Memory Configuration

Name             Origin             Length             Attributes
FLASH            0x0000000008000000 0x0000000000100000 xr
RAM              0x0000000020000000 0x0000000000020000 xrw
CCMRAM           0x0000000010000000 0x0000000000010000 rw
*default*        0x0000000000000000 0xffffffffffffffff

Linker script and memory map

LOAD /home/val/Desktop/fyp/gcc-arm-none-eabi-7-2017-q4-major/bin/../lib/gcc/arm-none-eabi/7.2.1/thumb/v7e-m/fpv4-sp/hard/crti.o
LOAD /home/val/Desktop/fyp/gcc-arm-none-eabi-7-2017-q4-major/bin/../lib/gcc/arm-none-eabi/7.2.1/thumb/v7e-m/fpv4-sp/hard/crtbegin.o
LOAD /home/val/Desktop/fyp/gcc-arm-none-eabi-7-2017-q4-major/bin/../lib/gcc/arm-none-eabi/7.2.1/../../../../arm-none-eabi/lib/thumb/v7e-m/fpv4-sp/hard/crt0.o
LOAD ../../soc/st/stm32f4/hal/src/stm32f4xx_hal.o
LOAD ../../soc/st/stm32f4/hal/src/stm32f4xx_hal_rcc.o
LOAD ../../soc/st/stm32f4/hal/src/stm32f4xx_hal_rcc_ex.o
LOAD ../../soc/st/stm32f4/hal/src/stm32f4xx_hal_cortex.o
LOAD ../../soc/st/stm32f4/hal/src/stm32f4xx_hal_gpio.o
LOAD ../../soc/st/stm32f4/system_stm32f4xx.o
LOAD ../../soc/st/stm32f4/lib/gpio.o
LOAD ../../soc/st/stm32f4/lib/delay.o
LOAD ../../soc/st/stm32f4/lib/i2c.o
LOAD ../../soc/st/stm32f4/lib/i2s.o
LOAD ../../soc/st/stm32f4/lib/dma.o
LOAD ../../soc/st/stm32f4/lib/adc.o
LOAD ../../soc/st/stm32f4/lib/usart.o
LOAD ../../soc/st/stm32f4/lib/rng.o
LOAD ../../soc/st/stm32f4/lib/spi.o
LOAD ../../target/mb997/main.o
LOAD ../../target/mb997/audio.o
LOAD ../../target/mb997/display.o
LOAD ../../common/logging.o
LOAD ../../common/debounce.o
LOAD ../../common/syscalls.o
LOAD ../../common/rand.o
LOAD ../../common/rtt/SEGGER_RTT.o
LOAD ../../common/rtt/SEGGER_RTT_printf.o
LOAD ../../drivers/cs43l22.o
LOAD ../../drivers/ili9341.o
LOAD ../../ggm/sin.o
LOAD ../../ggm/midi.o
LOAD ../../ggm/seq.o
LOAD ../../ggm/ggm.o
LOAD ../../ggm/event.o
LOAD ../../ggm/adsr.o
LOAD ../../ggm/pan.o
LOAD ../../ggm/ks.o
LOAD ../../ggm/lpf.o
LOAD ../../ggm/noise.o
LOAD ../../ggm/block.o
LOAD ../../ggm/pow.o
LOAD ../../ggm/bmark.o
LOAD ../../ggm/patch0.o
LOAD ../../ggm/patch1.o
LOAD ../../ggm/patch2.o
LOAD ../../ggm/patch3.o
LOAD ../../ggm/patch4.o
LOAD ../../ggm/patch5.o
LOAD ../../ggm/patch6.o
LOAD ../../ggm/patch7.o
LOAD ../../ggm/waveguide.o
LOAD ../../ggm/patch8.o
LOAD ../../ggm/waveguide2d.o
LOAD ../../ggm/patch9.o
LOAD ../../ggm/woodwind.o
LOAD ../../ui/fonts.o
LOAD ../../ui/term.o
LOAD ../../ui/graphics.o
LOAD ../../ui/profont22.o
LOAD ../../target/mb997/start.o
LOAD ../../ggm/p4wave.o
LOAD /home/val/Desktop/fyp/gcc-arm-none-eabi-7-2017-q4-major/bin/../lib/gcc/arm-none-eabi/7.2.1/../../../../arm-none-eabi/lib/thumb/v7e-m/fpv4-sp/hard/libm.a
START GROUP
LOAD /home/val/Desktop/fyp/gcc-arm-none-eabi-7-2017-q4-major/bin/../lib/gcc/arm-none-eabi/7.2.1/thumb/v7e-m/fpv4-sp/hard/libgcc.a
LOAD /home/val/Desktop/fyp/gcc-arm-none-eabi-7-2017-q4-major/bin/../lib/gcc/arm-none-eabi/7.2.1/../../../../arm-none-eabi/lib/thumb/v7e-m/fpv4-sp/hard/libc.a
END GROUP
LOAD /home/val/Desktop/fyp/gcc-arm-none-eabi-7-2017-q4-major/bin/../lib/gcc/arm-none-eabi/7.2.1/thumb/v7e-m/fpv4-sp/hard/crtend.o
LOAD /home/val/Desktop/fyp/gcc-arm-none-eabi-7-2017-q4-major/bin/../lib/gcc/arm-none-eabi/7.2.1/thumb/v7e-m/fpv4-sp/hard/crtn.o
                0x000000002001ffff                _estack = 0x2001ffff
                0x0000000000000200                _Min_Heap_Size = 0x200
                0x0000000000000400                _Min_Stack_Size = 0x400

.isr_vector     0x0000000008000000      0x188
                0x0000000008000000                . = ALIGN (0x4)
 *(.isr_vector)
 .isr_vector    0x0000000008000000      0x188 ../../target/mb997/start.o
                0x0000000008000000                g_pfnVectors
                0x0000000008000188                . = ALIGN (0x4)

.text           0x00000000080001c0     0x8e9c
                0x00000000080001c0                . = ALIGN (0x4)
 *(.text)
 .text          0x00000000080001c0       0x40 /home/val/Desktop/fyp/gcc-arm-none-eabi-7-2017-q4-major/bin/../lib/gcc/arm-none-eabi/7.2.1/thumb/v7e-m/fpv4-sp/hard/crtbegin.o
 .text          0x0000000008000200      0x1c8 ../../soc/st/stm32f4/hal/src/stm32f4xx_hal.o
                0x0000000008000200                HAL_MspInit
                0x0000000008000204                HAL_MspDeInit
                0x0000000008000208                HAL_DeInit
                0x0000000008000234                HAL_InitTick
                0x0000000008000260                HAL_Init
                0x0000000008000294                HAL_IncTick
                0x00000000080002a4                HAL_GetTick
                0x00000000080002b0                HAL_Delay
                0x00000000080002d4                HAL_SuspendTick
                0x00000000080002e4                HAL_ResumeTick
                0x00000000080002f4                HAL_GetHalVersion
                0x00000000080002fc                HAL_GetREVID
                0x0000000008000308                HAL_GetDEVID
                0x0000000008000318                HAL_DBGMCU_EnableDBGSleepMode
                0x0000000008000328                HAL_DBGMCU_DisableDBGSleepMode
                0x0000000008000338                HAL_DBGMCU_EnableDBGStopMode
                0x0000000008000348                HAL_DBGMCU_DisableDBGStopMode
                0x0000000008000358                HAL_DBGMCU_EnableDBGStandbyMode
                0x0000000008000368                HAL_DBGMCU_DisableDBGStandbyMode
                0x0000000008000378                HAL_EnableCompensationCell
                0x0000000008000390                HAL_DisableCompensationCell
                0x00000000080003ac                HAL_GetUID
 .text          0x00000000080003c8      0x7d0 ../../soc/st/stm32f4/hal/src/stm32f4xx_hal_rcc.o
                0x00000000080003cc                HAL_RCC_OscConfig
                0x0000000008000748                HAL_RCC_MCOConfig
                0x00000000080007e4                HAL_RCC_EnableCSS
                0x00000000080007f0                HAL_RCC_DisableCSS
                0x00000000080007fc                HAL_RCC_GetSysClockFreq
                0x0000000008000870                HAL_RCC_ClockConfig
                0x00000000080009e4                HAL_RCC_GetHCLKFreq
                0x00000000080009f0                HAL_RCC_GetPCLK1Freq
                0x0000000008000a20                HAL_RCC_GetPCLK2Freq
                0x0000000008000a50                HAL_RCC_GetOscConfig
                0x0000000008000b30                HAL_RCC_GetClockConfig
                0x0000000008000b74                HAL_RCC_CSSCallback
                0x0000000008000b78                HAL_RCC_NMI_IRQHandler
 .text          0x0000000008000b98      0x264 ../../soc/st/stm32f4/hal/src/stm32f4xx_hal_rcc_ex.o
                0x0000000008000b98                HAL_RCCEx_PeriphCLKConfig
                0x0000000008000cf4                HAL_RCCEx_GetPeriphCLKConfig
                0x0000000008000d44                HAL_RCCEx_GetPeriphCLKFreq
                0x0000000008000da4                HAL_RCC_DeInit
 .text          0x0000000008000dfc      0x2b8 ../../soc/st/stm32f4/hal/src/stm32f4xx_hal_cortex.o
                0x0000000008000dfc                HAL_NVIC_SetPriorityGrouping
                0x0000000008000e20                HAL_NVIC_SetPriority
                0x0000000008000e8c                HAL_NVIC_EnableIRQ
                0x0000000008000ea4                HAL_NVIC_DisableIRQ
                0x0000000008000ec0                HAL_NVIC_SystemReset
                0x0000000008000ee4                HAL_SYSTICK_Config
                0x0000000008000f18                HAL_MPU_Disable
                0x0000000008000f38                HAL_MPU_Enable
                0x0000000008000f5c                HAL_MPU_ConfigRegion
                0x0000000008000fb0                HAL_NVIC_GetPriorityGrouping
                0x0000000008000fc0                HAL_NVIC_GetPriority
                0x0000000008001020                HAL_NVIC_SetPendingIRQ
                0x000000000800103c                HAL_NVIC_GetPendingIRQ
                0x0000000008001058                HAL_NVIC_ClearPendingIRQ
                0x0000000008001074                HAL_NVIC_GetActive
                0x0000000008001090                HAL_SYSTICK_CLKSourceConfig
                0x00000000080010a8                HAL_SYSTICK_Callback
                0x00000000080010ac                HAL_SYSTICK_IRQHandler
 .text          0x00000000080010b4      0x3c8 ../../soc/st/stm32f4/hal/src/stm32f4xx_hal_gpio.o
                0x00000000080010b4                HAL_GPIO_Init
                0x00000000080012c4                HAL_GPIO_DeInit
                0x0000000008001418                HAL_GPIO_ReadPin
                0x0000000008001424                HAL_GPIO_WritePin
                0x000000000800142c                HAL_GPIO_TogglePin
                0x0000000008001434                HAL_GPIO_LockPin
                0x0000000008001460                HAL_GPIO_EXTI_Callback
                0x0000000008001464                HAL_GPIO_EXTI_IRQHandler
 .text          0x000000000800147c       0xc0 ../../soc/st/stm32f4/system_stm32f4xx.o
                0x000000000800147c                SystemInit
                0x00000000080014cc                SystemCoreClockUpdate
 .text          0x000000000800153c      0x110 ../../soc/st/stm32f4/lib/gpio.o
                0x000000000800153c                gpio_init
 .text          0x000000000800164c       0x5c ../../soc/st/stm32f4/lib/delay.o
                0x000000000800164c                mdelay
                0x0000000008001650                udelay
 .text          0x00000000080016a8      0x520 ../../soc/st/stm32f4/lib/i2c.o
                0x00000000080019c0                i2c_init
                0x0000000008001a50                i2c_rd
                0x0000000008001b40                i2c_scan
                0x0000000008001b58                i2c_wr
 .text          0x0000000008001bc8      0x168 ../../soc/st/stm32f4/lib/i2s.o
                0x0000000008001bc8                set_i2sclk
                0x0000000008001c28                get_i2sclk
                0x0000000008001c30                i2s_get_fsclk
                0x0000000008001c60                i2s_init
 .text          0x0000000008001d30      0x344 ../../soc/st/stm32f4/lib/dma.o
                0x0000000008001d30                dma_disable
                0x0000000008001d80                dma_isr
                0x0000000008001f20                dma_init
 .text          0x0000000008002074      0x108 ../../soc/st/stm32f4/lib/adc.o
                0x0000000008002074                adc_init
 .text          0x000000000800217c      0x33c ../../soc/st/stm32f4/lib/usart.o
                0x000000000800217c                usart_putc
                0x00000000080021d0                usart_flush
                0x00000000080021dc                usart_tstc
                0x00000000080021e8                usart_getc
                0x0000000008002238                usart_rxbuf
                0x00000000080022b4                usart_isr
                0x0000000008002318                usart_init
 .text          0x00000000080024b8       0xb8 ../../soc/st/stm32f4/lib/rng.o
                0x00000000080024b8                rng_isr
                0x00000000080024ec                rng_rd
                0x0000000008002528                rng_init
 .text          0x0000000008002570      0x1a0 ../../soc/st/stm32f4/lib/spi.o
                0x00000000080025c4                spi_enable
                0x000000000800260c                spi_wait4_done
                0x0000000008002618                spi_tx8
                0x000000000800263c                spi_txbuf8
                0x0000000008002668                spi_tx16
                0x000000000800268c                spi_init
 .text          0x0000000008002710       0x8c ../../target/mb997/main.o
                0x0000000008002710                Error_Handler
                0x0000000008002714                NMI_Handler
                0x0000000008002718                HardFault_Handler
                0x000000000800271c                MemManage_Handler
                0x0000000008002720                BusFault_Handler
                0x0000000008002724                UsageFault_Handler
                0x0000000008002728                SVC_Handler
                0x000000000800272c                DebugMon_Handler
                0x0000000008002730                PendSV_Handler
                0x0000000008002734                SysTick_Handler
                0x0000000008002760                debounce_on_handler
                0x0000000008002770                debounce_off_handler
                0x0000000008002780                debounce_input
                0x0000000008002790                USART2_IRQHandler
 .text          0x000000000800279c      0x28c ../../target/mb997/audio.o
                0x00000000080027f0                DMA1_Stream7_IRQHandler
                0x00000000080027fc                audio_init
                0x00000000080028dc                audio_start
                0x000000000800292c                audio_wr
                0x0000000008002980                audio_stats
                0x0000000008002a08                audio_master_volume
 .text          0x0000000008002a28       0xd0 ../../target/mb997/display.o
                0x0000000008002a28                display_init
 .text          0x0000000008002af8       0x30 ../../common/logging.o
                0x0000000008002af8                log_init
                0x0000000008002b04                log_printf
 .text          0x0000000008002b28       0x84 ../../common/debounce.o
                0x0000000008002b30                debounce_isr
                0x0000000008002b90                debounce_init
 .text          0x0000000008002bac       0x10 ../../common/rand.o
                0x0000000008002bac                rand_init
 .text          0x0000000008002bbc      0x994 ../../common/rtt/SEGGER_RTT.o
                0x0000000008002cb8                SEGGER_RTT_ReadNoLock
                0x0000000008002d6c                SEGGER_RTT_Read
                0x0000000008002d88                SEGGER_RTT_WriteWithOverwriteNoLock
                0x0000000008002e70                SEGGER_RTT_WriteSkipNoLock
                0x0000000008002f38                SEGGER_RTT_WriteNoLock
                0x0000000008002fbc                SEGGER_RTT_Write
                0x0000000008002ff4                SEGGER_RTT_WriteString
                0x0000000008003010                SEGGER_RTT_GetKey
                0x0000000008003040                SEGGER_RTT_WaitKey
                0x000000000800304c                SEGGER_RTT_HasKey
                0x000000000800306c                SEGGER_RTT_HasData
                0x0000000008003084                SEGGER_RTT_AllocDownBuffer
                0x00000000080030f4                SEGGER_RTT_AllocUpBuffer
                0x0000000008003174                SEGGER_RTT_ConfigUpBuffer
                0x00000000080031e4                SEGGER_RTT_ConfigDownBuffer
                0x0000000008003248                SEGGER_RTT_SetNameUpBuffer
                0x0000000008003288                SEGGER_RTT_SetNameDownBuffer
                0x00000000080032c8                SEGGER_RTT_SetFlagsUpBuffer
                0x0000000008003308                SEGGER_RTT_SetFlagsDownBuffer
                0x0000000008003348                SEGGER_RTT_Init
                0x000000000800334c                SEGGER_RTT_SetTerminal
                0x00000000080033ec                SEGGER_RTT_TerminalOut
 .text          0x0000000008003550      0x428 ../../common/rtt/SEGGER_RTT_printf.o
                0x000000000800367c                SEGGER_RTT_vprintf
                0x0000000008003958                SEGGER_RTT_printf
 .text          0x0000000008003978      0x4e0 ../../drivers/cs43l22.o
                0x00000000080039f8                cs4x_output
                0x0000000008003a44                cs4x_master_volume
                0x0000000008003a90                cs4x_headphone_volume
                0x0000000008003b28                cs4x_speaker_volume
                0x0000000008003b7c                cs4x_pcm_volume
                0x0000000008003bd0                cs4x_init
                0x0000000008003d84                cs4x_start
                0x0000000008003dc8                cs4x_stop
                0x0000000008003e08                cs4x_pause
                0x0000000008003e30                cs4x_resume
 .text          0x0000000008003e58      0x4e8 ../../drivers/ili9341.o
                0x0000000008003f14                lcd_fill_rect
                0x0000000008003f7c                lcd_set_pixel
                0x0000000008003fd8                lcd_draw_bitmap
                0x0000000008004080                lcd_set_scroll_region
                0x00000000080040f8                lcd_scroll
                0x000000000800414c                lcd_init
 .text          0x0000000008004340      0x500 ../../ggm/sin.o
                0x0000000008004340                cos_lookup
                0x0000000008004370                cos_eval
                0x00000000080043c4                sin_eval
                0x000000000800441c                tan_eval
                0x00000000080044b8                sin_gen
                0x0000000008004554                sin_ctrl_frequency
                0x0000000008004570                sin_init
                0x0000000008004574                gwave_gen
                0x0000000008004668                gwave_ctrl_shape
                0x0000000008004744                gwave_ctrl_frequency
                0x0000000008004760                gwave_init
                0x0000000008004764                mallet_lookup
                0x0000000008004778                mallet_gen
                0x0000000008004804                mallet_gen_2d
 .text          0x0000000008004840      0x390 ../../ggm/midi.o
                0x0000000008004980                midi_map
                0x00000000080049a8                midi_pitch_bend
                0x00000000080049b8                midi_to_frequency
                0x00000000080049e4                midi_rx_serial
 .text          0x0000000008004bd0      0x14c ../../ggm/seq.o
                0x0000000008004c80                seq_exec
                0x0000000008004cdc                seq_init
 .text          0x0000000008004d1c      0x354 ../../ggm/ggm.o
                0x0000000008004d1c                voice_lookup
                0x0000000008004d58                voice_alloc
                0x0000000008004de8                update_voices
                0x0000000008004e1c                ggm_run
                0x0000000008004f78                ggm_init
 .text          0x0000000008005070       0x98 ../../ggm/event.o
                0x0000000008005070                event_rd
                0x00000000080050b8                event_wr
                0x00000000080050f4                event_init
 .text          0x0000000008005108      0x228 ../../ggm/adsr.o
                0x0000000008005108                adsr_attack
                0x0000000008005110                adsr_release
                0x0000000008005138                adsr_idle
                0x0000000008005144                adsr_is_active
                0x0000000008005150                adsr_gen
                0x0000000008005234                adsr_init
                0x0000000008005320                ad_init
 .text          0x0000000008005330       0x7c ../../ggm/pan.o
                0x0000000008005330                pan_gen
                0x000000000800535c                pan_ctrl
                0x00000000080053a8                pan_init
 .text          0x00000000080053ac      0x13c ../../ggm/ks.o
                0x00000000080053ac                ks_gen
                0x0000000008005428                ks_pluck
                0x00000000080054b8                ks_ctrl_attenuate
                0x00000000080054c8                ks_ctrl_frequency
                0x00000000080054e4                ks_init
 .text          0x00000000080054e8      0x22c ../../ggm/lpf.o
                0x00000000080054e8                svf_gen
                0x0000000008005530                svf_ctrl_cutoff
                0x00000000080055a4                svf_ctrl_resonance
                0x00000000080055e8                svf_init
                0x00000000080055ec                svf2_gen
                0x0000000008005664                svf2_ctrl_cutoff
                0x00000000080056cc                svf2_ctrl_resonance
                0x0000000008005710                svf2_init
 .text          0x0000000008005714      0x318 ../../ggm/noise.o
                0x0000000008005714                noise_init
                0x0000000008005718                noise_gen_white
                0x000000000800575c                noise_gen_brown
                0x00000000080057d8                noise_gen_pink1
                0x00000000080058bc                noise_gen_pink2
 .text          0x0000000008005a2c      0x130 ../../ggm/block.o
                0x0000000008005a2c                block_mul
                0x0000000008005a48                block_mul_k
                0x0000000008005a88                block_add
                0x0000000008005aa4                block_add_k
                0x0000000008005ae4                block_copy
                0x0000000008005b18                block_copy_mul_k
 .text          0x0000000008005b5c       0xc4 ../../ggm/pow.o
                0x0000000008005b5c                pow2_int
                0x0000000008005b68                pow2_frac
                0x0000000008005b9c                pow2
                0x0000000008005c10                powe
 .text          0x0000000008005c20      0x274 ../../ggm/patch1.o
 .text          0x0000000008005e94      0x230 ../../ggm/patch2.o
 .text          0x00000000080060c4      0x3f4 ../../ggm/patch3.o
 .text          0x00000000080064b8      0x80c ../../ggm/patch4.o
                0x0000000008006c70                swvol0
                0x0000000008006c78                filter
                0x0000000008006cc0                wavupac
 .text          0x0000000008006cc4      0x378 ../../ggm/patch5.o
 .text          0x000000000800703c      0x210 ../../ggm/patch6.o
 .text          0x000000000800724c      0x1fc ../../ggm/patch8.o
 .text          0x0000000008007448      0x21c ../../ggm/waveguide2d.o
                0x0000000008007448                wg_2d_gen
                0x0000000008007648                wg_2d_pluck
                0x0000000008007658                wg_2d_ctrl_attenuate
                0x000000000800765c                wg_2d_ctrl_frequency
                0x0000000008007660                wg_2d_init
 .text          0x0000000008007664      0x254 ../../ggm/patch9.o
 .text          0x00000000080078b8      0x1ec ../../ggm/woodwind.o
                0x00000000080078b8                ww_gen
                0x0000000008007a2c                ww_blow
                0x0000000008007a50                ww_ctrl_attenuate
                0x0000000008007a54                ww_ctrl_frequency
                0x0000000008007aa0                ww_init
 .text          0x0000000008007aa4        0x8 ../../ui/fonts.o
                0x0000000008007aa4                font_get
 .text          0x0000000008007aac      0x144 ../../ui/term.o
                0x0000000008007aac                term_init
                0x0000000008007b14                term_print
 .text          0x0000000008007bf0      0x5ec ../../ggm/p4wave.o
                0x0000000008007bf0                wavupa
 .text          0x00000000080081dc      0x378 /home/val/Desktop/fyp/gcc-arm-none-eabi-7-2017-q4-major/bin/../lib/gcc/arm-none-eabi/7.2.1/thumb/v7e-m/fpv4-sp/hard/libgcc.a(_arm_addsubdf3.o)
                0x00000000080081dc                __aeabi_drsub
                0x00000000080081e4                __aeabi_dsub
                0x00000000080081e4                __subdf3
                0x00000000080081e8                __adddf3
                0x00000000080081e8                __aeabi_dadd
                0x0000000008008460                __aeabi_ui2d
                0x0000000008008460                __floatunsidf
                0x0000000008008480                __floatsidf
                0x0000000008008480                __aeabi_i2d
                0x00000000080084a4                __extendsfdf2
                0x00000000080084a4                __aeabi_f2d
                0x00000000080084e8                __aeabi_ul2d
                0x00000000080084e8                __floatundidf
                0x00000000080084f8                __floatdidf
                0x00000000080084f8                __aeabi_l2d
 .text          0x0000000008008554      0x424 /home/val/Desktop/fyp/gcc-arm-none-eabi-7-2017-q4-major/bin/../lib/gcc/arm-none-eabi/7.2.1/thumb/v7e-m/fpv4-sp/hard/libgcc.a(_arm_muldivdf3.o)
                0x0000000008008554                __aeabi_dmul
                0x0000000008008554                __muldf3
                0x00000000080087a8                __aeabi_ddiv
                0x00000000080087a8                __divdf3
 .text          0x0000000008008978       0x40 /home/val/Desktop/fyp/gcc-arm-none-eabi-7-2017-q4-major/bin/../lib/gcc/arm-none-eabi/7.2.1/thumb/v7e-m/fpv4-sp/hard/libgcc.a(_arm_fixunsdfsi.o)
                0x0000000008008978                __fixunsdfsi
                0x0000000008008978                __aeabi_d2uiz
 .text          0x00000000080089b8      0x134 /home/val/Desktop/fyp/gcc-arm-none-eabi-7-2017-q4-major/bin/../lib/gcc/arm-none-eabi/7.2.1/../../../../arm-none-eabi/lib/thumb/v7e-m/fpv4-sp/hard/libc.a(lib_a-memcpy.o)
                0x00000000080089b8                memcpy
 *fill*         0x0000000008008aec       0x14 
 .text          0x0000000008008b00       0xdc /home/val/Desktop/fyp/gcc-arm-none-eabi-7-2017-q4-major/bin/../lib/gcc/arm-none-eabi/7.2.1/../../../../arm-none-eabi/lib/thumb/v7e-m/fpv4-sp/hard/libc.a(lib_a-strlen.o)
                0x0000000008008b00                strlen
 *(.text*)
 .text.startup  0x0000000008008bdc      0x1f0 ../../target/mb997/main.o
                0x0000000008008bdc                main
 .text.Reset_Handler
                0x0000000008008dcc       0x50 ../../target/mb997/start.o
                0x0000000008008dcc                Reset_Handler
 .text.Default_Handler
                0x0000000008008e1c        0x2 ../../target/mb997/start.o
                0x0000000008008e1c                RTC_Alarm_IRQHandler
                0x0000000008008e1c                HASH_RNG_IRQHandler
                0x0000000008008e1c                EXTI2_IRQHandler
                0x0000000008008e1c                TIM8_CC_IRQHandler
                0x0000000008008e1c                TIM1_CC_IRQHandler
                0x0000000008008e1c                DMA2_Stream5_IRQHandler
                0x0000000008008e1c                DMA1_Stream5_IRQHandler
                0x0000000008008e1c                PVD_IRQHandler
                0x0000000008008e1c                SDIO_IRQHandler
                0x0000000008008e1c                TAMP_STAMP_IRQHandler
                0x0000000008008e1c                CAN2_RX1_IRQHandler
                0x0000000008008e1c                EXTI3_IRQHandler
                0x0000000008008e1c                TIM8_TRG_COM_TIM14_IRQHandler
                0x0000000008008e1c                TIM1_UP_TIM10_IRQHandler
                0x0000000008008e1c                TIM8_UP_TIM13_IRQHandler
                0x0000000008008e1c                I2C3_ER_IRQHandler
                0x0000000008008e1c                EXTI0_IRQHandler
                0x0000000008008e1c                I2C2_EV_IRQHandler
                0x0000000008008e1c                DMA1_Stream2_IRQHandler
                0x0000000008008e1c                CAN1_RX0_IRQHandler
                0x0000000008008e1c                FPU_IRQHandler
                0x0000000008008e1c                OTG_HS_WKUP_IRQHandler
                0x0000000008008e1c                CAN2_SCE_IRQHandler
                0x0000000008008e1c                DMA2_Stream2_IRQHandler
                0x0000000008008e1c                SPI1_IRQHandler
                0x0000000008008e1c                TIM6_DAC_IRQHandler
                0x0000000008008e1c                TIM1_BRK_TIM9_IRQHandler
                0x0000000008008e1c                DCMI_IRQHandler
                0x0000000008008e1c                CAN2_RX0_IRQHandler
                0x0000000008008e1c                DMA2_Stream3_IRQHandler
                0x0000000008008e1c                USART6_IRQHandler
                0x0000000008008e1c                USART3_IRQHandler
                0x0000000008008e1c                CAN1_RX1_IRQHandler
                0x0000000008008e1c                UART5_IRQHandler
                0x0000000008008e1c                DMA2_Stream0_IRQHandler
                0x0000000008008e1c                TIM4_IRQHandler
                0x0000000008008e1c                I2C1_EV_IRQHandler
                0x0000000008008e1c                DMA1_Stream6_IRQHandler
                0x0000000008008e1c                DMA1_Stream1_IRQHandler
                0x0000000008008e1c                UART4_IRQHandler
                0x0000000008008e1c                TIM3_IRQHandler
                0x0000000008008e1c                RCC_IRQHandler
                0x0000000008008e1c                TIM8_BRK_TIM12_IRQHandler
                0x0000000008008e1c                Default_Handler
                0x0000000008008e1c                EXTI15_10_IRQHandler
                0x0000000008008e1c                ADC_IRQHandler
                0x0000000008008e1c                TIM7_IRQHandler
                0x0000000008008e1c                CAN2_TX_IRQHandler
                0x0000000008008e1c                TIM5_IRQHandler
                0x0000000008008e1c                DMA2_Stream7_IRQHandler
                0x0000000008008e1c                I2C3_EV_IRQHandler
                0x0000000008008e1c                EXTI9_5_IRQHandler
                0x0000000008008e1c                RTC_WKUP_IRQHandler
                0x0000000008008e1c                ETH_WKUP_IRQHandler
                0x0000000008008e1c                SPI2_IRQHandler
                0x0000000008008e1c                OTG_HS_EP1_IN_IRQHandler
                0x0000000008008e1c                DMA1_Stream0_IRQHandler
                0x0000000008008e1c                CAN1_TX_IRQHandler
                0x0000000008008e1c                EXTI4_IRQHandler
                0x0000000008008e1c                FSMC_IRQHandler
                0x0000000008008e1c                ETH_IRQHandler
                0x0000000008008e1c                OTG_HS_EP1_OUT_IRQHandler
                0x0000000008008e1c                WWDG_IRQHandler
                0x0000000008008e1c                TIM2_IRQHandler
                0x0000000008008e1c                OTG_FS_WKUP_IRQHandler
                0x0000000008008e1c                TIM1_TRG_COM_TIM11_IRQHandler
                0x0000000008008e1c                OTG_HS_IRQHandler
                0x0000000008008e1c                EXTI1_IRQHandler
                0x0000000008008e1c                I2C2_ER_IRQHandler
                0x0000000008008e1c                DMA2_Stream1_IRQHandler
                0x0000000008008e1c                CAN1_SCE_IRQHandler
                0x0000000008008e1c                FLASH_IRQHandler
                0x0000000008008e1c                DMA2_Stream4_IRQHandler
                0x0000000008008e1c                USART1_IRQHandler
                0x0000000008008e1c                OTG_FS_IRQHandler
                0x0000000008008e1c                SPI3_IRQHandler
                0x0000000008008e1c                DMA1_Stream4_IRQHandler
                0x0000000008008e1c                I2C1_ER_IRQHandler
                0x0000000008008e1c                DMA2_Stream6_IRQHandler
                0x0000000008008e1c                DMA1_Stream3_IRQHandler
 *fill*         0x0000000008008e1e        0x2 
 .text.truncf   0x0000000008008e20       0x2c /home/val/Desktop/fyp/gcc-arm-none-eabi-7-2017-q4-major/bin/../lib/gcc/arm-none-eabi/7.2.1/../../../../arm-none-eabi/lib/thumb/v7e-m/fpv4-sp/hard/libm.a(lib_a-sf_trunc.o)
                0x0000000008008e20                truncf
 .text.__libc_init_array
                0x0000000008008e4c       0x48 /home/val/Desktop/fyp/gcc-arm-none-eabi-7-2017-q4-major/bin/../lib/gcc/arm-none-eabi/7.2.1/../../../../arm-none-eabi/lib/thumb/v7e-m/fpv4-sp/hard/libc.a(lib_a-init.o)
                0x0000000008008e4c                __libc_init_array
 .text.memset   0x0000000008008e94       0x94 /home/val/Desktop/fyp/gcc-arm-none-eabi-7-2017-q4-major/bin/../lib/gcc/arm-none-eabi/7.2.1/../../../../arm-none-eabi/lib/thumb/v7e-m/fpv4-sp/hard/libc.a(lib_a-memset.o)
                0x0000000008008e94                memset
 .text.startup.register_fini
                0x0000000008008f28       0x14 /home/val/Desktop/fyp/gcc-arm-none-eabi-7-2017-q4-major/bin/../lib/gcc/arm-none-eabi/7.2.1/../../../../arm-none-eabi/lib/thumb/v7e-m/fpv4-sp/hard/libc.a(lib_a-__call_atexit.o)
 .text.atexit   0x0000000008008f3c        0xc /home/val/Desktop/fyp/gcc-arm-none-eabi-7-2017-q4-major/bin/../lib/gcc/arm-none-eabi/7.2.1/../../../../arm-none-eabi/lib/thumb/v7e-m/fpv4-sp/hard/libc.a(lib_a-atexit.o)
                0x0000000008008f3c                atexit
 .text.__libc_fini_array
                0x0000000008008f48       0x34 /home/val/Desktop/fyp/gcc-arm-none-eabi-7-2017-q4-major/bin/../lib/gcc/arm-none-eabi/7.2.1/../../../../arm-none-eabi/lib/thumb/v7e-m/fpv4-sp/hard/libc.a(lib_a-fini.o)
                0x0000000008008f48                __libc_fini_array
 .text.__retarget_lock_acquire_recursive
                0x0000000008008f7c        0x4 /home/val/Desktop/fyp/gcc-arm-none-eabi-7-2017-q4-major/bin/../lib/gcc/arm-none-eabi/7.2.1/../../../../arm-none-eabi/lib/thumb/v7e-m/fpv4-sp/hard/libc.a(lib_a-lock.o)
                0x0000000008008f7c                __retarget_lock_acquire_recursive
 .text.__retarget_lock_release_recursive
                0x0000000008008f80        0x4 /home/val/Desktop/fyp/gcc-arm-none-eabi-7-2017-q4-major/bin/../lib/gcc/arm-none-eabi/7.2.1/../../../../arm-none-eabi/lib/thumb/v7e-m/fpv4-sp/hard/libc.a(lib_a-lock.o)
                0x0000000008008f80                __retarget_lock_release_recursive
 .text.__register_exitproc
                0x0000000008008f84       0xc0 /home/val/Desktop/fyp/gcc-arm-none-eabi-7-2017-q4-major/bin/../lib/gcc/arm-none-eabi/7.2.1/../../../../arm-none-eabi/lib/thumb/v7e-m/fpv4-sp/hard/libc.a(lib_a-__atexit.o)
                0x0000000008008f84                __register_exitproc
 *(.glue_7)
 .glue_7        0x0000000008009044        0x0 linker stubs
 *(.glue_7t)
 .glue_7t       0x0000000008009044        0x0 linker stubs
 *(.eh_frame)
 .eh_frame      0x0000000008009044        0x0 /home/val/Desktop/fyp/gcc-arm-none-eabi-7-2017-q4-major/bin/../lib/gcc/arm-none-eabi/7.2.1/thumb/v7e-m/fpv4-sp/hard/crtbegin.o
 *(.init)
 .init          0x0000000008009044        0x4 /home/val/Desktop/fyp/gcc-arm-none-eabi-7-2017-q4-major/bin/../lib/gcc/arm-none-eabi/7.2.1/thumb/v7e-m/fpv4-sp/hard/crti.o
                0x0000000008009044                _init
 .init          0x0000000008009048        0x8 /home/val/Desktop/fyp/gcc-arm-none-eabi-7-2017-q4-major/bin/../lib/gcc/arm-none-eabi/7.2.1/thumb/v7e-m/fpv4-sp/hard/crtn.o
 *(.fini)
 .fini          0x0000000008009050        0x4 /home/val/Desktop/fyp/gcc-arm-none-eabi-7-2017-q4-major/bin/../lib/gcc/arm-none-eabi/7.2.1/thumb/v7e-m/fpv4-sp/hard/crti.o
                0x0000000008009050                _fini
 .fini          0x0000000008009054        0x8 /home/val/Desktop/fyp/gcc-arm-none-eabi-7-2017-q4-major/bin/../lib/gcc/arm-none-eabi/7.2.1/thumb/v7e-m/fpv4-sp/hard/crtn.o
                0x000000000800905c                . = ALIGN (0x4)
                0x000000000800905c                _etext = .

.vfp11_veneer   0x000000000800905c        0x0
 .vfp11_veneer  0x000000000800905c        0x0 linker stubs

.v4_bx          0x000000000800905c        0x0
 .v4_bx         0x000000000800905c        0x0 linker stubs

.iplt           0x000000000800905c        0x0
 .iplt          0x000000000800905c        0x0 /home/val/Desktop/fyp/gcc-arm-none-eabi-7-2017-q4-major/bin/../lib/gcc/arm-none-eabi/7.2.1/thumb/v7e-m/fpv4-sp/hard/crtbegin.o

.rodata         0x000000000800905c     0x898c
                0x000000000800905c                . = ALIGN (0x4)
 *(.rodata)
 .rodata        0x000000000800905c       0x18 ../../soc/st/stm32f4/system_stm32f4xx.o
                0x000000000800905c                AHBPrescTable
                0x000000000800906c                APBPrescTable
 .rodata        0x0000000008009074       0x60 ../../soc/st/stm32f4/lib/i2s.o
 .rodata        0x00000000080090d4        0xc ../../soc/st/stm32f4/lib/dma.o
 .rodata        0x00000000080090e0      0x24c ../../target/mb997/main.o
 .rodata        0x000000000800932c      0x4e0 ../../target/mb997/display.o
 .rodata        0x000000000800980c       0x10 ../../common/rtt/SEGGER_RTT.o
 .rodata        0x000000000800981c       0x10 ../../common/rtt/SEGGER_RTT_printf.o
 .rodata        0x000000000800982c       0x67 ../../drivers/ili9341.o
 *fill*         0x0000000008009893        0x1 
 .rodata        0x0000000008009894     0x58a8 ../../ggm/sin.o
 .rodata        0x000000000800f13c       0x10 ../../ggm/seq.o
 .rodata        0x000000000800f14c      0x100 ../../ggm/pow.o
 .rodata        0x000000000800f24c       0x24 ../../ggm/patch1.o
                0x000000000800f24c                patch1
 .rodata        0x000000000800f270       0x24 ../../ggm/patch2.o
                0x000000000800f270                patch2
 .rodata        0x000000000800f294       0x24 ../../ggm/patch3.o
                0x000000000800f294                patch3
 .rodata        0x000000000800f2b8      0x324 ../../ggm/patch4.o
                0x000000000800f3b8                sintab
                0x000000000800f5b8                patch4
 .rodata        0x000000000800f5dc       0x24 ../../ggm/patch5.o
                0x000000000800f5dc                patch5
 .rodata        0x000000000800f600       0x24 ../../ggm/patch6.o
                0x000000000800f600                patch6
 .rodata        0x000000000800f624       0x24 ../../ggm/patch8.o
                0x000000000800f624                patch8
 .rodata        0x000000000800f648       0x24 ../../ggm/patch9.o
                0x000000000800f648                patch9
 .rodata        0x000000000800f66c     0x1a50 ../../ui/profont22.o
                0x000000000800f66c                profont22
 *(.rodata*)
 .rodata.str1.4
                0x00000000080110bc      0x114 ../../target/mb997/main.o
 .rodata.str1.4
                0x00000000080111d0      0x14d ../../target/mb997/audio.o
 *fill*         0x000000000801131d        0x3 
 .rodata.str1.4
                0x0000000008011320       0x9a ../../target/mb997/display.o
 *fill*         0x00000000080113ba        0x2 
 .rodata.str1.4
                0x00000000080113bc       0x17 ../../common/rtt/SEGGER_RTT.o
 *fill*         0x00000000080113d3        0x1 
 .rodata.str1.4
                0x00000000080113d4       0x18 ../../drivers/cs43l22.o
 .rodata.str1.4
                0x00000000080113ec      0x19f ../../ggm/midi.o
 *fill*         0x000000000801158b        0x1 
 .rodata.str1.4
                0x000000000801158c       0x2e ../../ggm/seq.o
 *fill*         0x00000000080115ba        0x2 
 .rodata.str1.4
                0x00000000080115bc       0x95 ../../ggm/ggm.o
 *fill*         0x0000000008011651        0x3 
 .rodata.str1.4
                0x0000000008011654       0x86 ../../ggm/patch1.o
 *fill*         0x00000000080116da        0x2 
 .rodata.str1.4
                0x00000000080116dc       0x53 ../../ggm/patch2.o
                                         0x83 (size before relaxing)
 *fill*         0x000000000801172f        0x1 
 .rodata.str1.4
                0x0000000008011730       0x8b ../../ggm/patch3.o
 *fill*         0x00000000080117bb        0x1 
 .rodata.str1.4
                0x00000000080117bc       0x8b ../../ggm/patch4.o
 *fill*         0x0000000008011847        0x1 
 .rodata.str1.4
                0x0000000008011848       0x8b ../../ggm/patch5.o
 *fill*         0x00000000080118d3        0x1 
 .rodata.str1.4
                0x00000000080118d4       0x92 ../../ggm/patch6.o
 *fill*         0x0000000008011966        0x2 
 .rodata.str1.4
                0x0000000008011968       0x26 ../../ggm/patch8.o
                                         0x53 (size before relaxing)
 *fill*         0x000000000801198e        0x2 
 .rodata.str1.4
                0x0000000008011990       0x54 ../../ggm/patch9.o
                                         0x53 (size before relaxing)
 .rodata._global_impure_ptr
                0x00000000080119e4        0x4 /home/val/Desktop/fyp/gcc-arm-none-eabi-7-2017-q4-major/bin/../lib/gcc/arm-none-eabi/7.2.1/../../../../arm-none-eabi/lib/thumb/v7e-m/fpv4-sp/hard/libc.a(lib_a-impure.o)
                0x00000000080119e4                _global_impure_ptr
                0x00000000080119e8                . = ALIGN (0x4)

.rel.dyn        0x00000000080119e8        0x0
 .rel.iplt      0x00000000080119e8        0x0 /home/val/Desktop/fyp/gcc-arm-none-eabi-7-2017-q4-major/bin/../lib/gcc/arm-none-eabi/7.2.1/thumb/v7e-m/fpv4-sp/hard/crtbegin.o

.ARM.extab
 *(.ARM.extab* .gnu.linkonce.armextab.*)

.ARM            0x00000000080119e8        0x0
                0x00000000080119e8                __exidx_start = .
 *(.ARM.exidx*)
                0x00000000080119e8                __exidx_end = .

.preinit_array  0x00000000080119e8        0x0
                0x00000000080119e8                PROVIDE (__preinit_array_start, .)
 *(.preinit_array*)
                0x00000000080119e8                PROVIDE (__preinit_array_end, .)

.init_array     0x00000000080119e8        0x8
                0x00000000080119e8                PROVIDE (__init_array_start, .)
 *(SORT_BY_NAME(.init_array.*))
 .init_array.00000
                0x00000000080119e8        0x4 /home/val/Desktop/fyp/gcc-arm-none-eabi-7-2017-q4-major/bin/../lib/gcc/arm-none-eabi/7.2.1/../../../../arm-none-eabi/lib/thumb/v7e-m/fpv4-sp/hard/libc.a(lib_a-__call_atexit.o)
 *(.init_array*)
 .init_array    0x00000000080119ec        0x4 /home/val/Desktop/fyp/gcc-arm-none-eabi-7-2017-q4-major/bin/../lib/gcc/arm-none-eabi/7.2.1/thumb/v7e-m/fpv4-sp/hard/crtbegin.o
                0x00000000080119f0                PROVIDE (__init_array_end, .)

.fini_array     0x00000000080119f0        0x4
                0x00000000080119f0                PROVIDE (__fini_array_start, .)
 *(SORT_BY_NAME(.fini_array.*))
 *(.fini_array*)
 .fini_array    0x00000000080119f0        0x4 /home/val/Desktop/fyp/gcc-arm-none-eabi-7-2017-q4-major/bin/../lib/gcc/arm-none-eabi/7.2.1/thumb/v7e-m/fpv4-sp/hard/crtbegin.o
                0x00000000080119f4                PROVIDE (__fini_array_end, .)
                0x00000000080119f4                _sidata = LOADADDR (.data)

.data           0x0000000020000000      0x59c load address 0x00000000080119f4
                0x0000000020000000                . = ALIGN (0x4)
                0x0000000020000000                _sdata = .
 *(.data)
 .data          0x0000000020000000        0x4 ../../soc/st/stm32f4/system_stm32f4xx.o
                0x0000000020000000                SystemCoreClock
 .data          0x0000000020000004       0x18 ../../target/mb997/main.o
                0x0000000020000004                midi_serial_cfg
 .data          0x000000002000001c       0x94 ../../target/mb997/audio.o
 .data          0x00000000200000b0       0x48 ../../target/mb997/display.o
 .data          0x00000000200000f8       0x71 ../../ggm/seq.o
 *(.data*)
 *fill*         0x0000000020000169        0x7 
 .data.impure_data
                0x0000000020000170      0x428 /home/val/Desktop/fyp/gcc-arm-none-eabi-7-2017-q4-major/bin/../lib/gcc/arm-none-eabi/7.2.1/../../../../arm-none-eabi/lib/thumb/v7e-m/fpv4-sp/hard/libc.a(lib_a-impure.o)
 .data.__atexit_recursive_mutex
                0x0000000020000598        0x4 /home/val/Desktop/fyp/gcc-arm-none-eabi-7-2017-q4-major/bin/../lib/gcc/arm-none-eabi/7.2.1/../../../../arm-none-eabi/lib/thumb/v7e-m/fpv4-sp/hard/libc.a(lib_a-__call_atexit.o)
                0x0000000020000598                __atexit_recursive_mutex
                0x000000002000059c                . = ALIGN (0x4)
                0x000000002000059c                _edata = .
                0x0000000008011f90                _siccmram = LOADADDR (.ccmram)

.igot.plt       0x000000002000059c        0x0 load address 0x0000000008011f90
 .igot.plt      0x000000002000059c        0x0 /home/val/Desktop/fyp/gcc-arm-none-eabi-7-2017-q4-major/bin/../lib/gcc/arm-none-eabi/7.2.1/thumb/v7e-m/fpv4-sp/hard/crtbegin.o

.ccmram         0x0000000010000000        0x0 load address 0x0000000008011f90
                0x0000000010000000                . = ALIGN (0x4)
                0x0000000010000000                _sccmram = .
 *(.ccmram)
 *(.ccmram*)
                0x0000000010000000                . = ALIGN (0x4)
                0x0000000010000000                _eccmram = .
                0x0000000010000000                . = ALIGN (0x4)

.bss            0x000000002000059c     0xd648
                0x000000002000059c                _sbss = .
                0x000000002000059c                __bss_start__ = _sbss
 *(.bss)
 .bss           0x000000002000059c       0x1c /home/val/Desktop/fyp/gcc-arm-none-eabi-7-2017-q4-major/bin/../lib/gcc/arm-none-eabi/7.2.1/thumb/v7e-m/fpv4-sp/hard/crtbegin.o
 .bss           0x00000000200005b8     0xc974 ../../target/mb997/main.o
 .bss           0x000000002000cf2c       0x1c ../../common/debounce.o
 .bss           0x000000002000cf48      0x411 ../../common/rtt/SEGGER_RTT.o
 *fill*         0x000000002000d359        0x3 
 .bss           0x000000002000d35c       0x88 ../../ggm/event.o
 *(.bss*)
 *(COMMON)
 COMMON         0x000000002000d3e4        0x4 ../../soc/st/stm32f4/hal/src/stm32f4xx_hal.o
                0x000000002000d3e4                uwTick
 COMMON         0x000000002000d3e8       0x60 ../../target/mb997/main.o
                0x000000002000d3e8                current_patch_no
                0x000000002000d3ec                midi_serial
 COMMON         0x000000002000d448      0x4ac ../../target/mb997/audio.o
                0x000000002000d448                ggm_audio
 COMMON         0x000000002000d8f4      0x200 ../../target/mb997/display.o
                0x000000002000d8f4                ggm_display
 COMMON         0x000000002000daf4        0x4 ../../common/rand.o
                0x000000002000daf4                rand_state
 COMMON         0x000000002000daf8       0xa8 ../../common/rtt/SEGGER_RTT.o
                0x000000002000daf8                _SEGGER_RTT
 COMMON         0x000000002000dba0       0x20 ../../ggm/patch4.o
                0x000000002000dba0                tbuf
 COMMON         0x000000002000dbc0       0x21 /home/val/Desktop/fyp/gcc-arm-none-eabi-7-2017-q4-major/bin/../lib/gcc/arm-none-eabi/7.2.1/../../../../arm-none-eabi/lib/thumb/v7e-m/fpv4-sp/hard/libc.a(lib_a-lock.o)
                0x000000002000dbc0                __lock___atexit_recursive_mutex
                0x000000002000dbc4                __lock___arc4random_mutex
                0x000000002000dbc8                __lock___env_recursive_mutex
                0x000000002000dbcc                __lock___sinit_recursive_mutex
                0x000000002000dbd0                __lock___malloc_recursive_mutex
                0x000000002000dbd4                __lock___at_quick_exit_mutex
                0x000000002000dbd8                __lock___dd_hash_mutex
                0x000000002000dbdc                __lock___tz_mutex
                0x000000002000dbe0                __lock___sfp_recursive_mutex
                0x000000002000dbe4                . = ALIGN (0x4)
 *fill*         0x000000002000dbe1        0x3 
                0x000000002000dbe4                _ebss = .
                0x000000002000dbe4                __bss_end__ = _ebss

._user_heap_stack
                0x000000002000dbe4      0x600
                0x000000002000dbe4                . = ALIGN (0x4)
                0x000000002000dbe4                PROVIDE (end, .)
                [!provide]                        PROVIDE (_end, .)
                0x000000002000dde4                . = (. + _Min_Heap_Size)
 *fill*         0x000000002000dbe4      0x200 
                0x000000002000e1e4                . = (. + _Min_Stack_Size)
 *fill*         0x000000002000dde4      0x400 
                0x000000002000e1e4                . = ALIGN (0x4)

/DISCARD/
 libc.a(*)
 libm.a(*)
 libgcc.a(*)

.ARM.attributes
                0x0000000000000000       0x30
 *(.ARM.attributes)
 .ARM.attributes
                0x0000000000000000       0x22 /home/val/Desktop/fyp/gcc-arm-none-eabi-7-2017-q4-major/bin/../lib/gcc/arm-none-eabi/7.2.1/thumb/v7e-m/fpv4-sp/hard/crti.o
 .ARM.attributes
                0x0000000000000022       0x34 /home/val/Desktop/fyp/gcc-arm-none-eabi-7-2017-q4-major/bin/../lib/gcc/arm-none-eabi/7.2.1/thumb/v7e-m/fpv4-sp/hard/crtbegin.o
 .ARM.attributes
                0x0000000000000056       0x39 ../../soc/st/stm32f4/hal/src/stm32f4xx_hal.o
 .ARM.attributes
                0x000000000000008f       0x39 ../../soc/st/stm32f4/hal/src/stm32f4xx_hal_rcc.o
 .ARM.attributes
                0x00000000000000c8       0x39 ../../soc/st/stm32f4/hal/src/stm32f4xx_hal_rcc_ex.o
 .ARM.attributes
                0x0000000000000101       0x39 ../../soc/st/stm32f4/hal/src/stm32f4xx_hal_cortex.o
 .ARM.attributes
                0x000000000000013a       0x39 ../../soc/st/stm32f4/hal/src/stm32f4xx_hal_gpio.o
 .ARM.attributes
                0x0000000000000173       0x39 ../../soc/st/stm32f4/system_stm32f4xx.o
 .ARM.attributes
                0x00000000000001ac       0x39 ../../soc/st/stm32f4/lib/gpio.o
 .ARM.attributes
                0x00000000000001e5       0x39 ../../soc/st/stm32f4/lib/delay.o
 .ARM.attributes
                0x000000000000021e       0x39 ../../soc/st/stm32f4/lib/i2c.o
 .ARM.attributes
                0x0000000000000257       0x39 ../../soc/st/stm32f4/lib/i2s.o
 .ARM.attributes
                0x0000000000000290       0x39 ../../soc/st/stm32f4/lib/dma.o
 .ARM.attributes
                0x00000000000002c9       0x39 ../../soc/st/stm32f4/lib/adc.o
 .ARM.attributes
                0x0000000000000302       0x39 ../../soc/st/stm32f4/lib/usart.o
 .ARM.attributes
                0x000000000000033b       0x39 ../../soc/st/stm32f4/lib/rng.o
 .ARM.attributes
                0x0000000000000374       0x39 ../../soc/st/stm32f4/lib/spi.o
 .ARM.attributes
                0x00000000000003ad       0x39 ../../target/mb997/main.o
 .ARM.attributes
                0x00000000000003e6       0x39 ../../target/mb997/audio.o
 .ARM.attributes
                0x000000000000041f       0x39 ../../target/mb997/display.o
 .ARM.attributes
                0x0000000000000458       0x39 ../../common/logging.o
 .ARM.attributes
                0x0000000000000491       0x39 ../../common/debounce.o
 .ARM.attributes
                0x00000000000004ca       0x39 ../../common/rand.o
 .ARM.attributes
                0x0000000000000503       0x39 ../../common/rtt/SEGGER_RTT.o
 .ARM.attributes
                0x000000000000053c       0x39 ../../common/rtt/SEGGER_RTT_printf.o
 .ARM.attributes
                0x0000000000000575       0x39 ../../drivers/cs43l22.o
 .ARM.attributes
                0x00000000000005ae       0x39 ../../drivers/ili9341.o
 .ARM.attributes
                0x00000000000005e7       0x39 ../../ggm/sin.o
 .ARM.attributes
                0x0000000000000620       0x39 ../../ggm/midi.o
 .ARM.attributes
                0x0000000000000659       0x39 ../../ggm/seq.o
 .ARM.attributes
                0x0000000000000692       0x39 ../../ggm/ggm.o
 .ARM.attributes
                0x00000000000006cb       0x39 ../../ggm/event.o
 .ARM.attributes
                0x0000000000000704       0x39 ../../ggm/adsr.o
 .ARM.attributes
                0x000000000000073d       0x39 ../../ggm/pan.o
 .ARM.attributes
                0x0000000000000776       0x39 ../../ggm/ks.o
 .ARM.attributes
                0x00000000000007af       0x39 ../../ggm/lpf.o
 .ARM.attributes
                0x00000000000007e8       0x39 ../../ggm/noise.o
 .ARM.attributes
                0x0000000000000821       0x39 ../../ggm/block.o
 .ARM.attributes
                0x000000000000085a       0x39 ../../ggm/pow.o
 .ARM.attributes
                0x0000000000000893       0x39 ../../ggm/patch1.o
 .ARM.attributes
                0x00000000000008cc       0x39 ../../ggm/patch2.o
 .ARM.attributes
                0x0000000000000905       0x39 ../../ggm/patch3.o
 .ARM.attributes
                0x000000000000093e       0x39 ../../ggm/patch4.o
 .ARM.attributes
                0x0000000000000977       0x39 ../../ggm/patch5.o
 .ARM.attributes
                0x00000000000009b0       0x39 ../../ggm/patch6.o
 .ARM.attributes
                0x00000000000009e9       0x39 ../../ggm/patch8.o
 .ARM.attributes
                0x0000000000000a22       0x39 ../../ggm/waveguide2d.o
 .ARM.attributes
                0x0000000000000a5b       0x39 ../../ggm/patch9.o
 .ARM.attributes
                0x0000000000000a94       0x39 ../../ggm/woodwind.o
 .ARM.attributes
                0x0000000000000acd       0x39 ../../ui/fonts.o
 .ARM.attributes
                0x0000000000000b06       0x39 ../../ui/term.o
 .ARM.attributes
                0x0000000000000b3f       0x39 ../../ui/profont22.o
 .ARM.attributes
                0x0000000000000b78       0x21 ../../target/mb997/start.o
 .ARM.attributes
                0x0000000000000b99       0x25 ../../ggm/p4wave.o
 .ARM.attributes
                0x0000000000000bbe       0x34 /home/val/Desktop/fyp/gcc-arm-none-eabi-7-2017-q4-major/bin/../lib/gcc/arm-none-eabi/7.2.1/../../../../arm-none-eabi/lib/thumb/v7e-m/fpv4-sp/hard/libm.a(lib_a-sf_trunc.o)
 .ARM.attributes
                0x0000000000000bf2       0x22 /home/val/Desktop/fyp/gcc-arm-none-eabi-7-2017-q4-major/bin/../lib/gcc/arm-none-eabi/7.2.1/thumb/v7e-m/fpv4-sp/hard/libgcc.a(_arm_addsubdf3.o)
 .ARM.attributes
                0x0000000000000c14       0x22 /home/val/Desktop/fyp/gcc-arm-none-eabi-7-2017-q4-major/bin/../lib/gcc/arm-none-eabi/7.2.1/thumb/v7e-m/fpv4-sp/hard/libgcc.a(_arm_muldivdf3.o)
 .ARM.attributes
                0x0000000000000c36       0x22 /home/val/Desktop/fyp/gcc-arm-none-eabi-7-2017-q4-major/bin/../lib/gcc/arm-none-eabi/7.2.1/thumb/v7e-m/fpv4-sp/hard/libgcc.a(_arm_fixunsdfsi.o)
 .ARM.attributes
                0x0000000000000c58       0x34 /home/val/Desktop/fyp/gcc-arm-none-eabi-7-2017-q4-major/bin/../lib/gcc/arm-none-eabi/7.2.1/../../../../arm-none-eabi/lib/thumb/v7e-m/fpv4-sp/hard/libc.a(lib_a-impure.o)
 .ARM.attributes
                0x0000000000000c8c       0x34 /home/val/Desktop/fyp/gcc-arm-none-eabi-7-2017-q4-major/bin/../lib/gcc/arm-none-eabi/7.2.1/../../../../arm-none-eabi/lib/thumb/v7e-m/fpv4-sp/hard/libc.a(lib_a-init.o)
 .ARM.attributes
                0x0000000000000cc0       0x20 /home/val/Desktop/fyp/gcc-arm-none-eabi-7-2017-q4-major/bin/../lib/gcc/arm-none-eabi/7.2.1/../../../../arm-none-eabi/lib/thumb/v7e-m/fpv4-sp/hard/libc.a(lib_a-memcpy.o)
 .ARM.attributes
                0x0000000000000ce0       0x34 /home/val/Desktop/fyp/gcc-arm-none-eabi-7-2017-q4-major/bin/../lib/gcc/arm-none-eabi/7.2.1/../../../../arm-none-eabi/lib/thumb/v7e-m/fpv4-sp/hard/libc.a(lib_a-memset.o)
 .ARM.attributes
                0x0000000000000d14       0x20 /home/val/Desktop/fyp/gcc-arm-none-eabi-7-2017-q4-major/bin/../lib/gcc/arm-none-eabi/7.2.1/../../../../arm-none-eabi/lib/thumb/v7e-m/fpv4-sp/hard/libc.a(lib_a-strlen.o)
 .ARM.attributes
                0x0000000000000d34       0x34 /home/val/Desktop/fyp/gcc-arm-none-eabi-7-2017-q4-major/bin/../lib/gcc/arm-none-eabi/7.2.1/../../../../arm-none-eabi/lib/thumb/v7e-m/fpv4-sp/hard/libc.a(lib_a-__call_atexit.o)
 .ARM.attributes
                0x0000000000000d68       0x34 /home/val/Desktop/fyp/gcc-arm-none-eabi-7-2017-q4-major/bin/../lib/gcc/arm-none-eabi/7.2.1/../../../../arm-none-eabi/lib/thumb/v7e-m/fpv4-sp/hard/libc.a(lib_a-atexit.o)
 .ARM.attributes
                0x0000000000000d9c       0x34 /home/val/Desktop/fyp/gcc-arm-none-eabi-7-2017-q4-major/bin/../lib/gcc/arm-none-eabi/7.2.1/../../../../arm-none-eabi/lib/thumb/v7e-m/fpv4-sp/hard/libc.a(lib_a-fini.o)
 .ARM.attributes
                0x0000000000000dd0       0x34 /home/val/Desktop/fyp/gcc-arm-none-eabi-7-2017-q4-major/bin/../lib/gcc/arm-none-eabi/7.2.1/../../../../arm-none-eabi/lib/thumb/v7e-m/fpv4-sp/hard/libc.a(lib_a-lock.o)
 .ARM.attributes
                0x0000000000000e04       0x34 /home/val/Desktop/fyp/gcc-arm-none-eabi-7-2017-q4-major/bin/../lib/gcc/arm-none-eabi/7.2.1/../../../../arm-none-eabi/lib/thumb/v7e-m/fpv4-sp/hard/libc.a(lib_a-__atexit.o)
 .ARM.attributes
                0x0000000000000e38       0x22 /home/val/Desktop/fyp/gcc-arm-none-eabi-7-2017-q4-major/bin/../lib/gcc/arm-none-eabi/7.2.1/thumb/v7e-m/fpv4-sp/hard/crtn.o
OUTPUT(ggm elf32-littlearm)

.comment        0x0000000000000000       0x7e
 .comment       0x0000000000000000       0x7e ../../soc/st/stm32f4/hal/src/stm32f4xx_hal.o
                                         0x7f (size before relaxing)
 .comment       0x000000000000007e       0x7f ../../soc/st/stm32f4/hal/src/stm32f4xx_hal_rcc.o
 .comment       0x000000000000007e       0x7f ../../soc/st/stm32f4/hal/src/stm32f4xx_hal_rcc_ex.o
 .comment       0x000000000000007e       0x7f ../../soc/st/stm32f4/hal/src/stm32f4xx_hal_cortex.o
 .comment       0x000000000000007e       0x7f ../../soc/st/stm32f4/hal/src/stm32f4xx_hal_gpio.o
 .comment       0x000000000000007e       0x7f ../../soc/st/stm32f4/system_stm32f4xx.o
 .comment       0x000000000000007e       0x7f ../../soc/st/stm32f4/lib/gpio.o
 .comment       0x000000000000007e       0x7f ../../soc/st/stm32f4/lib/delay.o
 .comment       0x000000000000007e       0x7f ../../soc/st/stm32f4/lib/i2c.o
 .comment       0x000000000000007e       0x7f ../../soc/st/stm32f4/lib/i2s.o
 .comment       0x000000000000007e       0x7f ../../soc/st/stm32f4/lib/dma.o
 .comment       0x000000000000007e       0x7f ../../soc/st/stm32f4/lib/adc.o
 .comment       0x000000000000007e       0x7f ../../soc/st/stm32f4/lib/usart.o
 .comment       0x000000000000007e       0x7f ../../soc/st/stm32f4/lib/rng.o
 .comment       0x000000000000007e       0x7f ../../soc/st/stm32f4/lib/spi.o
 .comment       0x000000000000007e       0x7f ../../target/mb997/main.o
 .comment       0x000000000000007e       0x7f ../../target/mb997/audio.o
 .comment       0x000000000000007e       0x7f ../../target/mb997/display.o
 .comment       0x000000000000007e       0x7f ../../common/logging.o
 .comment       0x000000000000007e       0x7f ../../common/debounce.o
 .comment       0x000000000000007e       0x7f ../../common/rand.o
 .comment       0x000000000000007e       0x7f ../../common/rtt/SEGGER_RTT.o
 .comment       0x000000000000007e       0x7f ../../common/rtt/SEGGER_RTT_printf.o
 .comment       0x000000000000007e       0x7f ../../drivers/cs43l22.o
 .comment       0x000000000000007e       0x7f ../../drivers/ili9341.o
 .comment       0x000000000000007e       0x7f ../../ggm/sin.o
 .comment       0x000000000000007e       0x7f ../../ggm/midi.o
 .comment       0x000000000000007e       0x7f ../../ggm/seq.o
 .comment       0x000000000000007e       0x7f ../../ggm/ggm.o
 .comment       0x000000000000007e       0x7f ../../ggm/event.o
 .comment       0x000000000000007e       0x7f ../../ggm/adsr.o
 .comment       0x000000000000007e       0x7f ../../ggm/pan.o
 .comment       0x000000000000007e       0x7f ../../ggm/ks.o
 .comment       0x000000000000007e       0x7f ../../ggm/lpf.o
 .comment       0x000000000000007e       0x7f ../../ggm/noise.o
 .comment       0x000000000000007e       0x7f ../../ggm/block.o
 .comment       0x000000000000007e       0x7f ../../ggm/pow.o
 .comment       0x000000000000007e       0x7f ../../ggm/patch1.o
 .comment       0x000000000000007e       0x7f ../../ggm/patch2.o
 .comment       0x000000000000007e       0x7f ../../ggm/patch3.o
 .comment       0x000000000000007e       0x7f ../../ggm/patch4.o
 .comment       0x000000000000007e       0x7f ../../ggm/patch5.o
 .comment       0x000000000000007e       0x7f ../../ggm/patch6.o
 .comment       0x000000000000007e       0x7f ../../ggm/patch8.o
 .comment       0x000000000000007e       0x7f ../../ggm/waveguide2d.o
 .comment       0x000000000000007e       0x7f ../../ggm/patch9.o
 .comment       0x000000000000007e       0x7f ../../ggm/woodwind.o
 .comment       0x000000000000007e       0x7f ../../ui/fonts.o
 .comment       0x000000000000007e       0x7f ../../ui/term.o
 .comment       0x000000000000007e       0x7f ../../ui/profont22.o

.debug_frame    0x0000000000000000      0x338
 .debug_frame   0x0000000000000000       0x20 /home/val/Desktop/fyp/gcc-arm-none-eabi-7-2017-q4-major/bin/../lib/gcc/arm-none-eabi/7.2.1/../../../../arm-none-eabi/lib/thumb/v7e-m/fpv4-sp/hard/libm.a(lib_a-sf_trunc.o)
 .debug_frame   0x0000000000000020       0xac /home/val/Desktop/fyp/gcc-arm-none-eabi-7-2017-q4-major/bin/../lib/gcc/arm-none-eabi/7.2.1/thumb/v7e-m/fpv4-sp/hard/libgcc.a(_arm_addsubdf3.o)
 .debug_frame   0x00000000000000cc       0x50 /home/val/Desktop/fyp/gcc-arm-none-eabi-7-2017-q4-major/bin/../lib/gcc/arm-none-eabi/7.2.1/thumb/v7e-m/fpv4-sp/hard/libgcc.a(_arm_muldivdf3.o)
 .debug_frame   0x000000000000011c       0x24 /home/val/Desktop/fyp/gcc-arm-none-eabi-7-2017-q4-major/bin/../lib/gcc/arm-none-eabi/7.2.1/thumb/v7e-m/fpv4-sp/hard/libgcc.a(_arm_fixunsdfsi.o)
 .debug_frame   0x0000000000000140       0x2c /home/val/Desktop/fyp/gcc-arm-none-eabi-7-2017-q4-major/bin/../lib/gcc/arm-none-eabi/7.2.1/../../../../arm-none-eabi/lib/thumb/v7e-m/fpv4-sp/hard/libc.a(lib_a-init.o)
 .debug_frame   0x000000000000016c       0x38 /home/val/Desktop/fyp/gcc-arm-none-eabi-7-2017-q4-major/bin/../lib/gcc/arm-none-eabi/7.2.1/../../../../arm-none-eabi/lib/thumb/v7e-m/fpv4-sp/hard/libc.a(lib_a-memset.o)
 .debug_frame   0x00000000000001a4       0x5c /home/val/Desktop/fyp/gcc-arm-none-eabi-7-2017-q4-major/bin/../lib/gcc/arm-none-eabi/7.2.1/../../../../arm-none-eabi/lib/thumb/v7e-m/fpv4-sp/hard/libc.a(lib_a-__call_atexit.o)
 .debug_frame   0x0000000000000200       0x20 /home/val/Desktop/fyp/gcc-arm-none-eabi-7-2017-q4-major/bin/../lib/gcc/arm-none-eabi/7.2.1/../../../../arm-none-eabi/lib/thumb/v7e-m/fpv4-sp/hard/libc.a(lib_a-atexit.o)
 .debug_frame   0x0000000000000220       0x34 /home/val/Desktop/fyp/gcc-arm-none-eabi-7-2017-q4-major/bin/../lib/gcc/arm-none-eabi/7.2.1/../../../../arm-none-eabi/lib/thumb/v7e-m/fpv4-sp/hard/libc.a(lib_a-fini.o)
 .debug_frame   0x0000000000000254       0xb0 /home/val/Desktop/fyp/gcc-arm-none-eabi-7-2017-q4-major/bin/../lib/gcc/arm-none-eabi/7.2.1/../../../../arm-none-eabi/lib/thumb/v7e-m/fpv4-sp/hard/libc.a(lib_a-lock.o)
 .debug_frame   0x0000000000000304       0x34 /home/val/Desktop/fyp/gcc-arm-none-eabi-7-2017-q4-major/bin/../lib/gcc/arm-none-eabi/7.2.1/../../../../arm-none-eabi/lib/thumb/v7e-m/fpv4-sp/hard/libc.a(lib_a-__atexit.o)
